	.file	"binary-equivalent-easy.cpp"
	.section .rdata,"dr"
__ZStL19piecewise_construct:
	.space 1
	.section	.text$_ZN9__gnu_cxx5__ops16__iter_less_iterEv,"x"
	.linkonce discard
	.globl	__ZN9__gnu_cxx5__ops16__iter_less_iterEv
	.def	__ZN9__gnu_cxx5__ops16__iter_less_iterEv;	.scl	2;	.type	32;	.endef
__ZN9__gnu_cxx5__ops16__iter_less_iterEv:
	pushl	%ebp
	movl	%esp, %ebp
	popl	%ebp
	ret
	.section	.text$_ZnwjPv,"x"
	.linkonce discard
	.globl	__ZnwjPv
	.def	__ZnwjPv;	.scl	2;	.type	32;	.endef
__ZnwjPv:
	pushl	%ebp
	movl	%esp, %ebp
	movl	12(%ebp), %eax
	popl	%ebp
	ret
	.section	.text$_ZdlPvS_,"x"
	.linkonce discard
	.globl	__ZdlPvS_
	.def	__ZdlPvS_;	.scl	2;	.type	32;	.endef
__ZdlPvS_:
	pushl	%ebp
	movl	%esp, %ebp
	nop
	popl	%ebp
	ret
	.section .rdata,"dr"
LC0:
	.ascii "%d\0"
	.section	.text$_ZNSt7__cxx119to_stringEi,"x"
	.linkonce discard
	.globl	__ZNSt7__cxx119to_stringEi
	.def	__ZNSt7__cxx119to_stringEi;	.scl	2;	.type	32;	.endef
__ZNSt7__cxx119to_stringEi:
	pushl	%ebp
	movl	%esp, %ebp
	subl	$40, %esp
	movl	$16, %ecx
	movl	8(%ebp), %eax
	movl	12(%ebp), %edx
	movl	%edx, 16(%esp)
	movl	$LC0, 12(%esp)
	movl	%ecx, 8(%esp)
	movl	$_vsnprintf, 4(%esp)
	movl	%eax, (%esp)
	call	__ZN9__gnu_cxx12__to_xstringINSt7__cxx1112basic_stringIcSt11char_traitsIcESaIcEEEcEET_PFiPT0_jPKS8_PcEjSB_z
	movl	8(%ebp), %eax
	leave
	ret
	.section	.text$_ZNKSt4hashIiEclEi,"x"
	.linkonce discard
	.align 2
	.globl	__ZNKSt4hashIiEclEi
	.def	__ZNKSt4hashIiEclEi;	.scl	2;	.type	32;	.endef
__ZNKSt4hashIiEclEi:
	pushl	%ebp
	movl	%esp, %ebp
	subl	$4, %esp
	movl	%ecx, -4(%ebp)
	movl	8(%ebp), %eax
	leave
	ret	$4
	.section .rdata,"dr"
__ZStL13allocator_arg:
	.space 1
__ZStL6ignore:
	.space 1
.lcomm __ZStL8__ioinit,1,1
	.align 4
__ZN9__gnu_cxxL21__default_lock_policyE:
	.long	2
__ZStL10defer_lock:
	.space 1
__ZStL11try_to_lock:
	.space 1
__ZStL10adopt_lock:
	.space 1
	.align 4
__ZNSt15regex_constantsL5icaseE:
	.long	1
	.align 4
__ZNSt15regex_constantsL6nosubsE:
	.long	2
	.align 4
__ZNSt15regex_constantsL8optimizeE:
	.long	4
	.align 4
__ZNSt15regex_constantsL7collateE:
	.long	8
	.align 4
__ZNSt15regex_constantsL10ECMAScriptE:
	.long	16
	.align 4
__ZNSt15regex_constantsL5basicE:
	.long	32
	.align 4
__ZNSt15regex_constantsL8extendedE:
	.long	64
	.align 4
__ZNSt15regex_constantsL3awkE:
	.long	128
	.align 4
__ZNSt15regex_constantsL4grepE:
	.long	256
	.align 4
__ZNSt15regex_constantsL5egrepE:
	.long	512
	.align 4
__ZNSt15regex_constantsL13match_defaultE:
	.space 4
	.align 4
__ZNSt15regex_constantsL13match_not_bolE:
	.long	1
	.align 4
__ZNSt15regex_constantsL13match_not_eolE:
	.long	2
	.align 4
__ZNSt15regex_constantsL13match_not_bowE:
	.long	4
	.align 4
__ZNSt15regex_constantsL13match_not_eowE:
	.long	8
	.align 4
__ZNSt15regex_constantsL9match_anyE:
	.long	16
	.align 4
__ZNSt15regex_constantsL14match_not_nullE:
	.long	32
	.align 4
__ZNSt15regex_constantsL16match_continuousE:
	.long	64
	.align 4
__ZNSt15regex_constantsL16match_prev_availE:
	.long	128
	.align 4
__ZNSt15regex_constantsL14format_defaultE:
	.space 4
	.align 4
__ZNSt15regex_constantsL10format_sedE:
	.long	256
	.align 4
__ZNSt15regex_constantsL14format_no_copyE:
	.long	512
	.align 4
__ZNSt15regex_constantsL17format_first_onlyE:
	.long	1024
	.align 4
__ZNSt15regex_constantsL13error_collateE:
	.space 4
	.align 4
__ZNSt15regex_constantsL11error_ctypeE:
	.long	1
	.align 4
__ZNSt15regex_constantsL12error_escapeE:
	.long	2
	.align 4
__ZNSt15regex_constantsL13error_backrefE:
	.long	3
	.align 4
__ZNSt15regex_constantsL11error_brackE:
	.long	4
	.align 4
__ZNSt15regex_constantsL11error_parenE:
	.long	5
	.align 4
__ZNSt15regex_constantsL11error_braceE:
	.long	6
	.align 4
__ZNSt15regex_constantsL14error_badbraceE:
	.long	7
	.align 4
__ZNSt15regex_constantsL11error_rangeE:
	.long	8
	.align 4
__ZNSt15regex_constantsL11error_spaceE:
	.long	9
	.align 4
__ZNSt15regex_constantsL15error_badrepeatE:
	.long	10
	.align 4
__ZNSt15regex_constantsL16error_complexityE:
	.long	11
	.align 4
__ZNSt15regex_constantsL11error_stackE:
	.long	12
	.align 4
__ZNSt8__detailL19_S_invalid_state_idE:
	.long	-1
	.section	.text$_ZNSt8__detail15_Hash_node_baseC2Ev,"x"
	.linkonce discard
	.align 2
	.globl	__ZNSt8__detail15_Hash_node_baseC2Ev
	.def	__ZNSt8__detail15_Hash_node_baseC2Ev;	.scl	2;	.type	32;	.endef
__ZNSt8__detail15_Hash_node_baseC2Ev:
	pushl	%ebp
	movl	%esp, %ebp
	subl	$4, %esp
	movl	%ecx, -4(%ebp)
	movl	-4(%ebp), %eax
	movl	$0, (%eax)
	nop
	leave
	ret
	.section	.text$_ZNSt8__detail15_Hash_node_baseC1Ev,"x"
	.linkonce discard
	.align 2
	.globl	__ZNSt8__detail15_Hash_node_baseC1Ev
	.def	__ZNSt8__detail15_Hash_node_baseC1Ev;	.scl	2;	.type	32;	.endef
__ZNSt8__detail15_Hash_node_baseC1Ev:
	pushl	%ebp
	movl	%esp, %ebp
	subl	$4, %esp
	movl	%ecx, -4(%ebp)
	movl	-4(%ebp), %eax
	movl	$0, (%eax)
	nop
	leave
	ret
	.section	.text$_ZNKSt8__detail18_Mod_range_hashingclEjj,"x"
	.linkonce discard
	.align 2
	.globl	__ZNKSt8__detail18_Mod_range_hashingclEjj
	.def	__ZNKSt8__detail18_Mod_range_hashingclEjj;	.scl	2;	.type	32;	.endef
__ZNKSt8__detail18_Mod_range_hashingclEjj:
	pushl	%ebp
	movl	%esp, %ebp
	subl	$4, %esp
	movl	%ecx, -4(%ebp)
	movl	8(%ebp), %eax
	movl	$0, %edx
	divl	12(%ebp)
	movl	%edx, %eax
	leave
	ret	$8
	.section	.text$_ZNSt8__detail20_Prime_rehash_policyC1Ef,"x"
	.linkonce discard
	.align 2
	.globl	__ZNSt8__detail20_Prime_rehash_policyC1Ef
	.def	__ZNSt8__detail20_Prime_rehash_policyC1Ef;	.scl	2;	.type	32;	.endef
__ZNSt8__detail20_Prime_rehash_policyC1Ef:
	pushl	%ebp
	movl	%esp, %ebp
	subl	$4, %esp
	movl	%ecx, -4(%ebp)
	movl	-4(%ebp), %eax
	flds	8(%ebp)
	fstps	(%eax)
	movl	-4(%ebp), %eax
	movl	$0, 4(%eax)
	nop
	leave
	ret	$4
	.section	.text$_ZNKSt8__detail20_Prime_rehash_policy8_M_stateEv,"x"
	.linkonce discard
	.align 2
	.globl	__ZNKSt8__detail20_Prime_rehash_policy8_M_stateEv
	.def	__ZNKSt8__detail20_Prime_rehash_policy8_M_stateEv;	.scl	2;	.type	32;	.endef
__ZNKSt8__detail20_Prime_rehash_policy8_M_stateEv:
	pushl	%ebp
	movl	%esp, %ebp
	subl	$4, %esp
	movl	%ecx, -4(%ebp)
	movl	-4(%ebp), %eax
	movl	4(%eax), %eax
	leave
	ret
	.section	.text$_ZNSt8__detail20_Prime_rehash_policy8_M_resetEj,"x"
	.linkonce discard
	.align 2
	.globl	__ZNSt8__detail20_Prime_rehash_policy8_M_resetEj
	.def	__ZNSt8__detail20_Prime_rehash_policy8_M_resetEj;	.scl	2;	.type	32;	.endef
__ZNSt8__detail20_Prime_rehash_policy8_M_resetEj:
	pushl	%ebp
	movl	%esp, %ebp
	subl	$4, %esp
	movl	%ecx, -4(%ebp)
	movl	-4(%ebp), %eax
	movl	8(%ebp), %edx
	movl	%edx, 4(%eax)
	nop
	leave
	ret	$4
	.section .rdata,"dr"
	.align 4
__ZL1N:
	.long	1000007
	.section	.text$_ZNK9__gnu_cxx5__ops15_Iter_less_iterclINS_17__normal_iteratorIPiSt6vectorIiSaIiEEEES8_EEbT_T0_,"x"
	.linkonce discard
	.align 2
	.globl	__ZNK9__gnu_cxx5__ops15_Iter_less_iterclINS_17__normal_iteratorIPiSt6vectorIiSaIiEEEES8_EEbT_T0_
	.def	__ZNK9__gnu_cxx5__ops15_Iter_less_iterclINS_17__normal_iteratorIPiSt6vectorIiSaIiEEEES8_EEbT_T0_;	.scl	2;	.type	32;	.endef
__ZNK9__gnu_cxx5__ops15_Iter_less_iterclINS_17__normal_iteratorIPiSt6vectorIiSaIiEEEES8_EEbT_T0_:
	pushl	%ebp
	movl	%esp, %ebp
	pushl	%ebx
	subl	$20, %esp
	movl	%ecx, -12(%ebp)
	leal	8(%ebp), %ecx
	call	__ZNK9__gnu_cxx17__normal_iteratorIPiSt6vectorIiSaIiEEEdeEv
	movl	(%eax), %ebx
	leal	12(%ebp), %eax
	movl	%eax, %ecx
	call	__ZNK9__gnu_cxx17__normal_iteratorIPiSt6vectorIiSaIiEEEdeEv
	movl	(%eax), %eax
	cmpl	%eax, %ebx
	setl	%al
	addl	$20, %esp
	popl	%ebx
	popl	%ebp
	ret	$8
	.section	.text$_ZSt13__max_elementIN9__gnu_cxx17__normal_iteratorIPiSt6vectorIiSaIiEEEENS0_5__ops15_Iter_less_iterEET_S9_S9_T0_,"x"
	.linkonce discard
	.globl	__ZSt13__max_elementIN9__gnu_cxx17__normal_iteratorIPiSt6vectorIiSaIiEEEENS0_5__ops15_Iter_less_iterEET_S9_S9_T0_
	.def	__ZSt13__max_elementIN9__gnu_cxx17__normal_iteratorIPiSt6vectorIiSaIiEEEENS0_5__ops15_Iter_less_iterEET_S9_S9_T0_;	.scl	2;	.type	32;	.endef
__ZSt13__max_elementIN9__gnu_cxx17__normal_iteratorIPiSt6vectorIiSaIiEEEENS0_5__ops15_Iter_less_iterEET_S9_S9_T0_:
	pushl	%ebp
	movl	%esp, %ebp
	subl	$40, %esp
	leal	12(%ebp), %eax
	movl	%eax, 4(%esp)
	leal	8(%ebp), %eax
	movl	%eax, (%esp)
	call	__ZN9__gnu_cxxeqIPiSt6vectorIiSaIiEEEEbRKNS_17__normal_iteratorIT_T0_EESA_
	testb	%al, %al
	je	L21
	movl	8(%ebp), %eax
	jmp	L26
L21:
	movl	8(%ebp), %eax
	movl	%eax, -12(%ebp)
L25:
	leal	8(%ebp), %ecx
	call	__ZN9__gnu_cxx17__normal_iteratorIPiSt6vectorIiSaIiEEEppEv
	movl	%eax, %edx
	leal	12(%ebp), %eax
	movl	%eax, 4(%esp)
	movl	%edx, (%esp)
	call	__ZN9__gnu_cxxneIPiSt6vectorIiSaIiEEEEbRKNS_17__normal_iteratorIT_T0_EESA_
	testb	%al, %al
	je	L23
	leal	16(%ebp), %eax
	movl	8(%ebp), %edx
	movl	%edx, 4(%esp)
	movl	-12(%ebp), %edx
	movl	%edx, (%esp)
	movl	%eax, %ecx
	call	__ZNK9__gnu_cxx5__ops15_Iter_less_iterclINS_17__normal_iteratorIPiSt6vectorIiSaIiEEEES8_EEbT_T0_
	subl	$8, %esp
	testb	%al, %al
	je	L25
	movl	8(%ebp), %eax
	movl	%eax, -12(%ebp)
	jmp	L25
L23:
	movl	-12(%ebp), %eax
L26:
	leave
	ret
	.section	.text$_ZSt11max_elementIN9__gnu_cxx17__normal_iteratorIPiSt6vectorIiSaIiEEEEET_S7_S7_,"x"
	.linkonce discard
	.globl	__ZSt11max_elementIN9__gnu_cxx17__normal_iteratorIPiSt6vectorIiSaIiEEEEET_S7_S7_
	.def	__ZSt11max_elementIN9__gnu_cxx17__normal_iteratorIPiSt6vectorIiSaIiEEEEET_S7_S7_;	.scl	2;	.type	32;	.endef
__ZSt11max_elementIN9__gnu_cxx17__normal_iteratorIPiSt6vectorIiSaIiEEEEET_S7_S7_:
	pushl	%ebp
	movl	%esp, %ebp
	pushl	%ebx
	subl	$36, %esp
	call	__ZN9__gnu_cxx5__ops16__iter_less_iterEv
	movb	%bl, 8(%esp)
	movl	12(%ebp), %eax
	movl	%eax, 4(%esp)
	movl	8(%ebp), %eax
	movl	%eax, (%esp)
	call	__ZSt13__max_elementIN9__gnu_cxx17__normal_iteratorIPiSt6vectorIiSaIiEEEENS0_5__ops15_Iter_less_iterEET_S9_S9_T0_
	addl	$36, %esp
	popl	%ebx
	popl	%ebp
	ret
	.section .rdata,"dr"
LC2:
	.ascii "\0"
	.def	___gxx_personality_sj0;	.scl	2;	.type	32;	.endef
	.def	__Unwind_SjLj_Register;	.scl	2;	.type	32;	.endef
	.def	__Unwind_SjLj_Unregister;	.scl	2;	.type	32;	.endef
	.text
	.align 2
	.def	__ZZ4mainENKUliE_clEi;	.scl	3;	.type	32;	.endef
__ZZ4mainENKUliE_clEi:
	pushl	%ebp
	movl	%esp, %ebp
	pushl	%edi
	pushl	%esi
	pushl	%ebx
	subl	$124, %esp
	movl	%ecx, -60(%ebp)
	movl	$___gxx_personality_sj0, -88(%ebp)
	movl	$LLSDA11466, -84(%ebp)
	leal	-80(%ebp), %eax
	leal	-24(%ebp), %ebx
	movl	%ebx, (%eax)
	movl	$L36, %edx
	movl	%edx, 4(%eax)
	movl	%esp, 8(%eax)
	leal	-112(%ebp), %eax
	movl	%eax, (%esp)
	call	__Unwind_SjLj_Register
	leal	-49(%ebp), %eax
	movl	%eax, %ecx
	call	__ZNSaIcEC1Ev
	movl	-60(%ebp), %eax
	leal	-49(%ebp), %edx
	movl	%edx, 4(%esp)
	movl	$LC2, (%esp)
	movl	$1, -108(%ebp)
	movl	%eax, %ecx
	call	__ZNSt7__cxx1112basic_stringIcSt11char_traitsIcESaIcEEC1EPKcRKS3_
	subl	$8, %esp
	leal	-49(%ebp), %eax
	movl	%eax, %ecx
	call	__ZNSaIcED1Ev
L31:
	cmpl	$0, 12(%ebp)
	je	L30
	movl	12(%ebp), %eax
	cltd
	shrl	$31, %edx
	addl	%edx, %eax
	andl	$1, %eax
	subl	%edx, %eax
	movl	%eax, %edx
	leal	-48(%ebp), %eax
	movl	%edx, 4(%esp)
	movl	%eax, (%esp)
	movl	$2, -108(%ebp)
	call	__ZNSt7__cxx119to_stringEi
	movl	-60(%ebp), %eax
	leal	-48(%ebp), %edx
	movl	%edx, (%esp)
	movl	$3, -108(%ebp)
	movl	%eax, %ecx
	call	__ZNSt7__cxx1112basic_stringIcSt11char_traitsIcESaIcEEpLERKS4_
	subl	$4, %esp
	leal	-48(%ebp), %eax
	movl	%eax, %ecx
	call	__ZNSt7__cxx1112basic_stringIcSt11char_traitsIcESaIcEED1Ev
	sarl	12(%ebp)
	jmp	L31
L30:
	movl	-60(%ebp), %eax
	movl	%eax, %ecx
	call	__ZNSt7__cxx1112basic_stringIcSt11char_traitsIcESaIcEE3endEv
	movl	%eax, -116(%ebp)
	movl	-60(%ebp), %eax
	movl	%eax, %ecx
	call	__ZNSt7__cxx1112basic_stringIcSt11char_traitsIcESaIcEE5beginEv
	movl	-116(%ebp), %esi
	movl	%esi, 4(%esp)
	movl	%eax, (%esp)
	movl	$2, -108(%ebp)
	call	__ZSt7reverseIN9__gnu_cxx17__normal_iteratorIPcNSt7__cxx1112basic_stringIcSt11char_traitsIcESaIcEEEEEEvT_SA_
	jmp	L40
L36:
	leal	24(%ebp), %ebp
	movl	-104(%ebp), %edx
	movl	-108(%ebp), %eax
	testl	%eax, %eax
	je	L37
	subl	$1, %eax
	testl	%eax, %eax
	je	L38
	subl	$1, %eax
	testl	%eax, %eax
	je	L39
	subl	$1, %eax
	ud2
L37:
	movl	%edx, -116(%ebp)
	leal	-49(%ebp), %eax
	movl	%eax, %ecx
	call	__ZNSaIcED1Ev
	movl	-116(%ebp), %eax
	movl	%eax, (%esp)
	movl	$-1, -108(%ebp)
	call	__Unwind_SjLj_Resume
L39:
	movl	%edx, -116(%ebp)
	leal	-48(%ebp), %eax
	movl	%eax, %ecx
	call	__ZNSt7__cxx1112basic_stringIcSt11char_traitsIcESaIcEED1Ev
	movl	-116(%ebp), %eax
	movl	%eax, -116(%ebp)
	jmp	L35
L38:
	movl	%edx, -116(%ebp)
L35:
	movl	-60(%ebp), %eax
	movl	%eax, %ecx
	call	__ZNSt7__cxx1112basic_stringIcSt11char_traitsIcESaIcEED1Ev
	movl	-116(%ebp), %eax
	movl	%eax, (%esp)
	movl	$-1, -108(%ebp)
	call	__Unwind_SjLj_Resume
L40:
	leal	-112(%ebp), %eax
	movl	%eax, (%esp)
	call	__Unwind_SjLj_Unregister
	movl	-60(%ebp), %eax
	leal	-12(%ebp), %esp
	popl	%ebx
	popl	%esi
	popl	%edi
	popl	%ebp
	ret	$8
	.section	.gcc_except_table,"w"
LLSDA11466:
	.byte	0xff
	.byte	0xff
	.byte	0x1
	.uleb128 LLSDACSE11466-LLSDACSB11466
LLSDACSB11466:
	.uleb128 0
	.uleb128 0
	.uleb128 0x1
	.uleb128 0
	.uleb128 0x2
	.uleb128 0
LLSDACSE11466:
	.text
	.section	.text$_ZNSt8__detail10_Select1stC2Ev,"x"
	.linkonce discard
	.align 2
	.globl	__ZNSt8__detail10_Select1stC2Ev
	.def	__ZNSt8__detail10_Select1stC2Ev;	.scl	2;	.type	32;	.endef
__ZNSt8__detail10_Select1stC2Ev:
	pushl	%ebp
	movl	%esp, %ebp
	subl	$4, %esp
	movl	%ecx, -4(%ebp)
	nop
	leave
	ret
	.section	.text$_ZNSt8__detail21_Hashtable_ebo_helperILi0ENS_10_Select1stELb1EEC2Ev,"x"
	.linkonce discard
	.align 2
	.globl	__ZNSt8__detail21_Hashtable_ebo_helperILi0ENS_10_Select1stELb1EEC2Ev
	.def	__ZNSt8__detail21_Hashtable_ebo_helperILi0ENS_10_Select1stELb1EEC2Ev;	.scl	2;	.type	32;	.endef
__ZNSt8__detail21_Hashtable_ebo_helperILi0ENS_10_Select1stELb1EEC2Ev:
	pushl	%ebp
	movl	%esp, %ebp
	subl	$4, %esp
	movl	%ecx, -4(%ebp)
	movl	-4(%ebp), %eax
	movl	%eax, %ecx
	call	__ZNSt8__detail10_Select1stC2Ev
	nop
	leave
	ret
	.section	.text$_ZNSt11__hash_baseIjiEC2Ev,"x"
	.linkonce discard
	.align 2
	.globl	__ZNSt11__hash_baseIjiEC2Ev
	.def	__ZNSt11__hash_baseIjiEC2Ev;	.scl	2;	.type	32;	.endef
__ZNSt11__hash_baseIjiEC2Ev:
	pushl	%ebp
	movl	%esp, %ebp
	subl	$4, %esp
	movl	%ecx, -4(%ebp)
	nop
	leave
	ret
	.section	.text$_ZNSt4hashIiEC2Ev,"x"
	.linkonce discard
	.align 2
	.globl	__ZNSt4hashIiEC2Ev
	.def	__ZNSt4hashIiEC2Ev;	.scl	2;	.type	32;	.endef
__ZNSt4hashIiEC2Ev:
	pushl	%ebp
	movl	%esp, %ebp
	subl	$4, %esp
	movl	%ecx, -4(%ebp)
	movl	-4(%ebp), %eax
	movl	%eax, %ecx
	call	__ZNSt11__hash_baseIjiEC2Ev
	nop
	leave
	ret
	.section	.text$_ZNSt8__detail21_Hashtable_ebo_helperILi1ESt4hashIiELb1EEC2Ev,"x"
	.linkonce discard
	.align 2
	.globl	__ZNSt8__detail21_Hashtable_ebo_helperILi1ESt4hashIiELb1EEC2Ev
	.def	__ZNSt8__detail21_Hashtable_ebo_helperILi1ESt4hashIiELb1EEC2Ev;	.scl	2;	.type	32;	.endef
__ZNSt8__detail21_Hashtable_ebo_helperILi1ESt4hashIiELb1EEC2Ev:
	pushl	%ebp
	movl	%esp, %ebp
	subl	$4, %esp
	movl	%ecx, -4(%ebp)
	movl	-4(%ebp), %eax
	movl	%eax, %ecx
	call	__ZNSt4hashIiEC2Ev
	nop
	leave
	ret
	.section	.text$_ZNSt8__detail18_Mod_range_hashingC2Ev,"x"
	.linkonce discard
	.align 2
	.globl	__ZNSt8__detail18_Mod_range_hashingC2Ev
	.def	__ZNSt8__detail18_Mod_range_hashingC2Ev;	.scl	2;	.type	32;	.endef
__ZNSt8__detail18_Mod_range_hashingC2Ev:
	pushl	%ebp
	movl	%esp, %ebp
	subl	$4, %esp
	movl	%ecx, -4(%ebp)
	nop
	leave
	ret
	.section	.text$_ZNSt8__detail21_Hashtable_ebo_helperILi2ENS_18_Mod_range_hashingELb1EEC2Ev,"x"
	.linkonce discard
	.align 2
	.globl	__ZNSt8__detail21_Hashtable_ebo_helperILi2ENS_18_Mod_range_hashingELb1EEC2Ev
	.def	__ZNSt8__detail21_Hashtable_ebo_helperILi2ENS_18_Mod_range_hashingELb1EEC2Ev;	.scl	2;	.type	32;	.endef
__ZNSt8__detail21_Hashtable_ebo_helperILi2ENS_18_Mod_range_hashingELb1EEC2Ev:
	pushl	%ebp
	movl	%esp, %ebp
	subl	$4, %esp
	movl	%ecx, -4(%ebp)
	movl	-4(%ebp), %eax
	movl	%eax, %ecx
	call	__ZNSt8__detail18_Mod_range_hashingC2Ev
	nop
	leave
	ret
	.section	.text$_ZNSt8__detail15_Hash_code_baseIiSt4pairIKiS1_IiiEENS_10_Select1stESt4hashIiENS_18_Mod_range_hashingENS_20_Default_ranged_hashELb0EEC2Ev,"x"
	.linkonce discard
	.align 2
	.globl	__ZNSt8__detail15_Hash_code_baseIiSt4pairIKiS1_IiiEENS_10_Select1stESt4hashIiENS_18_Mod_range_hashingENS_20_Default_ranged_hashELb0EEC2Ev
	.def	__ZNSt8__detail15_Hash_code_baseIiSt4pairIKiS1_IiiEENS_10_Select1stESt4hashIiENS_18_Mod_range_hashingENS_20_Default_ranged_hashELb0EEC2Ev;	.scl	2;	.type	32;	.endef
__ZNSt8__detail15_Hash_code_baseIiSt4pairIKiS1_IiiEENS_10_Select1stESt4hashIiENS_18_Mod_range_hashingENS_20_Default_ranged_hashELb0EEC2Ev:
	pushl	%ebp
	movl	%esp, %ebp
	subl	$4, %esp
	movl	%ecx, -4(%ebp)
	movl	-4(%ebp), %eax
	movl	%eax, %ecx
	call	__ZNSt8__detail21_Hashtable_ebo_helperILi0ENS_10_Select1stELb1EEC2Ev
	movl	-4(%ebp), %eax
	movl	%eax, %ecx
	call	__ZNSt8__detail21_Hashtable_ebo_helperILi1ESt4hashIiELb1EEC2Ev
	movl	-4(%ebp), %eax
	movl	%eax, %ecx
	call	__ZNSt8__detail21_Hashtable_ebo_helperILi2ENS_18_Mod_range_hashingELb1EEC2Ev
	nop
	leave
	ret
	.section	.text$_ZNSt15binary_functionIiibEC2Ev,"x"
	.linkonce discard
	.align 2
	.globl	__ZNSt15binary_functionIiibEC2Ev
	.def	__ZNSt15binary_functionIiibEC2Ev;	.scl	2;	.type	32;	.endef
__ZNSt15binary_functionIiibEC2Ev:
	pushl	%ebp
	movl	%esp, %ebp
	subl	$4, %esp
	movl	%ecx, -4(%ebp)
	nop
	leave
	ret
	.section	.text$_ZNSt8equal_toIiEC2Ev,"x"
	.linkonce discard
	.align 2
	.globl	__ZNSt8equal_toIiEC2Ev
	.def	__ZNSt8equal_toIiEC2Ev;	.scl	2;	.type	32;	.endef
__ZNSt8equal_toIiEC2Ev:
	pushl	%ebp
	movl	%esp, %ebp
	subl	$4, %esp
	movl	%ecx, -4(%ebp)
	movl	-4(%ebp), %eax
	movl	%eax, %ecx
	call	__ZNSt15binary_functionIiibEC2Ev
	nop
	leave
	ret
	.section	.text$_ZNSt8__detail21_Hashtable_ebo_helperILi0ESt8equal_toIiELb1EEC2Ev,"x"
	.linkonce discard
	.align 2
	.globl	__ZNSt8__detail21_Hashtable_ebo_helperILi0ESt8equal_toIiELb1EEC2Ev
	.def	__ZNSt8__detail21_Hashtable_ebo_helperILi0ESt8equal_toIiELb1EEC2Ev;	.scl	2;	.type	32;	.endef
__ZNSt8__detail21_Hashtable_ebo_helperILi0ESt8equal_toIiELb1EEC2Ev:
	pushl	%ebp
	movl	%esp, %ebp
	subl	$4, %esp
	movl	%ecx, -4(%ebp)
	movl	-4(%ebp), %eax
	movl	%eax, %ecx
	call	__ZNSt8equal_toIiEC2Ev
	nop
	leave
	ret
	.section	.text$_ZNSt8__detail15_Hashtable_baseIiSt4pairIKiS1_IiiEENS_10_Select1stESt8equal_toIiESt4hashIiENS_18_Mod_range_hashingENS_20_Default_ranged_hashENS_17_Hashtable_traitsILb0ELb0ELb1EEEEC2Ev,"x"
	.linkonce discard
	.align 2
	.globl	__ZNSt8__detail15_Hashtable_baseIiSt4pairIKiS1_IiiEENS_10_Select1stESt8equal_toIiESt4hashIiENS_18_Mod_range_hashingENS_20_Default_ranged_hashENS_17_Hashtable_traitsILb0ELb0ELb1EEEEC2Ev
	.def	__ZNSt8__detail15_Hashtable_baseIiSt4pairIKiS1_IiiEENS_10_Select1stESt8equal_toIiESt4hashIiENS_18_Mod_range_hashingENS_20_Default_ranged_hashENS_17_Hashtable_traitsILb0ELb0ELb1EEEEC2Ev;	.scl	2;	.type	32;	.endef
__ZNSt8__detail15_Hashtable_baseIiSt4pairIKiS1_IiiEENS_10_Select1stESt8equal_toIiESt4hashIiENS_18_Mod_range_hashingENS_20_Default_ranged_hashENS_17_Hashtable_traitsILb0ELb0ELb1EEEEC2Ev:
	pushl	%ebp
	movl	%esp, %ebp
	subl	$4, %esp
	movl	%ecx, -4(%ebp)
	movl	-4(%ebp), %eax
	movl	%eax, %ecx
	call	__ZNSt8__detail15_Hash_code_baseIiSt4pairIKiS1_IiiEENS_10_Select1stESt4hashIiENS_18_Mod_range_hashingENS_20_Default_ranged_hashELb0EEC2Ev
	movl	-4(%ebp), %eax
	movl	%eax, %ecx
	call	__ZNSt8__detail21_Hashtable_ebo_helperILi0ESt8equal_toIiELb1EEC2Ev
	nop
	leave
	ret
	.section	.text$_ZNSt8__detail9_Map_baseIiSt4pairIKiS1_IiiEESaIS4_ENS_10_Select1stESt8equal_toIiESt4hashIiENS_18_Mod_range_hashingENS_20_Default_ranged_hashENS_20_Prime_rehash_policyENS_17_Hashtable_traitsILb0ELb0ELb1EEELb1EEC2Ev,"x"
	.linkonce discard
	.align 2
	.globl	__ZNSt8__detail9_Map_baseIiSt4pairIKiS1_IiiEESaIS4_ENS_10_Select1stESt8equal_toIiESt4hashIiENS_18_Mod_range_hashingENS_20_Default_ranged_hashENS_20_Prime_rehash_policyENS_17_Hashtable_traitsILb0ELb0ELb1EEELb1EEC2Ev
	.def	__ZNSt8__detail9_Map_baseIiSt4pairIKiS1_IiiEESaIS4_ENS_10_Select1stESt8equal_toIiESt4hashIiENS_18_Mod_range_hashingENS_20_Default_ranged_hashENS_20_Prime_rehash_policyENS_17_Hashtable_traitsILb0ELb0ELb1EEELb1EEC2Ev;	.scl	2;	.type	32;	.endef
__ZNSt8__detail9_Map_baseIiSt4pairIKiS1_IiiEESaIS4_ENS_10_Select1stESt8equal_toIiESt4hashIiENS_18_Mod_range_hashingENS_20_Default_ranged_hashENS_20_Prime_rehash_policyENS_17_Hashtable_traitsILb0ELb0ELb1EEELb1EEC2Ev:
	pushl	%ebp
	movl	%esp, %ebp
	subl	$4, %esp
	movl	%ecx, -4(%ebp)
	nop
	leave
	ret
	.section	.text$_ZNSt8__detail12_Insert_baseIiSt4pairIKiS1_IiiEESaIS4_ENS_10_Select1stESt8equal_toIiESt4hashIiENS_18_Mod_range_hashingENS_20_Default_ranged_hashENS_20_Prime_rehash_policyENS_17_Hashtable_traitsILb0ELb0ELb1EEEEC2Ev,"x"
	.linkonce discard
	.align 2
	.globl	__ZNSt8__detail12_Insert_baseIiSt4pairIKiS1_IiiEESaIS4_ENS_10_Select1stESt8equal_toIiESt4hashIiENS_18_Mod_range_hashingENS_20_Default_ranged_hashENS_20_Prime_rehash_policyENS_17_Hashtable_traitsILb0ELb0ELb1EEEEC2Ev
	.def	__ZNSt8__detail12_Insert_baseIiSt4pairIKiS1_IiiEESaIS4_ENS_10_Select1stESt8equal_toIiESt4hashIiENS_18_Mod_range_hashingENS_20_Default_ranged_hashENS_20_Prime_rehash_policyENS_17_Hashtable_traitsILb0ELb0ELb1EEEEC2Ev;	.scl	2;	.type	32;	.endef
__ZNSt8__detail12_Insert_baseIiSt4pairIKiS1_IiiEESaIS4_ENS_10_Select1stESt8equal_toIiESt4hashIiENS_18_Mod_range_hashingENS_20_Default_ranged_hashENS_20_Prime_rehash_policyENS_17_Hashtable_traitsILb0ELb0ELb1EEEEC2Ev:
	pushl	%ebp
	movl	%esp, %ebp
	subl	$4, %esp
	movl	%ecx, -4(%ebp)
	nop
	leave
	ret
	.section	.text$_ZNSt8__detail7_InsertIiSt4pairIKiS1_IiiEESaIS4_ENS_10_Select1stESt8equal_toIiESt4hashIiENS_18_Mod_range_hashingENS_20_Default_ranged_hashENS_20_Prime_rehash_policyENS_17_Hashtable_traitsILb0ELb0ELb1EEELb0ELb1EEC2Ev,"x"
	.linkonce discard
	.align 2
	.globl	__ZNSt8__detail7_InsertIiSt4pairIKiS1_IiiEESaIS4_ENS_10_Select1stESt8equal_toIiESt4hashIiENS_18_Mod_range_hashingENS_20_Default_ranged_hashENS_20_Prime_rehash_policyENS_17_Hashtable_traitsILb0ELb0ELb1EEELb0ELb1EEC2Ev
	.def	__ZNSt8__detail7_InsertIiSt4pairIKiS1_IiiEESaIS4_ENS_10_Select1stESt8equal_toIiESt4hashIiENS_18_Mod_range_hashingENS_20_Default_ranged_hashENS_20_Prime_rehash_policyENS_17_Hashtable_traitsILb0ELb0ELb1EEELb0ELb1EEC2Ev;	.scl	2;	.type	32;	.endef
__ZNSt8__detail7_InsertIiSt4pairIKiS1_IiiEESaIS4_ENS_10_Select1stESt8equal_toIiESt4hashIiENS_18_Mod_range_hashingENS_20_Default_ranged_hashENS_20_Prime_rehash_policyENS_17_Hashtable_traitsILb0ELb0ELb1EEELb0ELb1EEC2Ev:
	pushl	%ebp
	movl	%esp, %ebp
	subl	$4, %esp
	movl	%ecx, -4(%ebp)
	movl	-4(%ebp), %eax
	movl	%eax, %ecx
	call	__ZNSt8__detail12_Insert_baseIiSt4pairIKiS1_IiiEESaIS4_ENS_10_Select1stESt8equal_toIiESt4hashIiENS_18_Mod_range_hashingENS_20_Default_ranged_hashENS_20_Prime_rehash_policyENS_17_Hashtable_traitsILb0ELb0ELb1EEEEC2Ev
	nop
	leave
	ret
	.section	.text$_ZNSt8__detail12_Rehash_baseIiSt4pairIKiS1_IiiEESaIS4_ENS_10_Select1stESt8equal_toIiESt4hashIiENS_18_Mod_range_hashingENS_20_Default_ranged_hashENS_20_Prime_rehash_policyENS_17_Hashtable_traitsILb0ELb0ELb1EEEEC2Ev,"x"
	.linkonce discard
	.align 2
	.globl	__ZNSt8__detail12_Rehash_baseIiSt4pairIKiS1_IiiEESaIS4_ENS_10_Select1stESt8equal_toIiESt4hashIiENS_18_Mod_range_hashingENS_20_Default_ranged_hashENS_20_Prime_rehash_policyENS_17_Hashtable_traitsILb0ELb0ELb1EEEEC2Ev
	.def	__ZNSt8__detail12_Rehash_baseIiSt4pairIKiS1_IiiEESaIS4_ENS_10_Select1stESt8equal_toIiESt4hashIiENS_18_Mod_range_hashingENS_20_Default_ranged_hashENS_20_Prime_rehash_policyENS_17_Hashtable_traitsILb0ELb0ELb1EEEEC2Ev;	.scl	2;	.type	32;	.endef
__ZNSt8__detail12_Rehash_baseIiSt4pairIKiS1_IiiEESaIS4_ENS_10_Select1stESt8equal_toIiESt4hashIiENS_18_Mod_range_hashingENS_20_Default_ranged_hashENS_20_Prime_rehash_policyENS_17_Hashtable_traitsILb0ELb0ELb1EEEEC2Ev:
	pushl	%ebp
	movl	%esp, %ebp
	subl	$4, %esp
	movl	%ecx, -4(%ebp)
	nop
	leave
	ret
	.section	.text$_ZNSt8__detail9_EqualityIiSt4pairIKiS1_IiiEESaIS4_ENS_10_Select1stESt8equal_toIiESt4hashIiENS_18_Mod_range_hashingENS_20_Default_ranged_hashENS_20_Prime_rehash_policyENS_17_Hashtable_traitsILb0ELb0ELb1EEELb1EEC2Ev,"x"
	.linkonce discard
	.align 2
	.globl	__ZNSt8__detail9_EqualityIiSt4pairIKiS1_IiiEESaIS4_ENS_10_Select1stESt8equal_toIiESt4hashIiENS_18_Mod_range_hashingENS_20_Default_ranged_hashENS_20_Prime_rehash_policyENS_17_Hashtable_traitsILb0ELb0ELb1EEELb1EEC2Ev
	.def	__ZNSt8__detail9_EqualityIiSt4pairIKiS1_IiiEESaIS4_ENS_10_Select1stESt8equal_toIiESt4hashIiENS_18_Mod_range_hashingENS_20_Default_ranged_hashENS_20_Prime_rehash_policyENS_17_Hashtable_traitsILb0ELb0ELb1EEELb1EEC2Ev;	.scl	2;	.type	32;	.endef
__ZNSt8__detail9_EqualityIiSt4pairIKiS1_IiiEESaIS4_ENS_10_Select1stESt8equal_toIiESt4hashIiENS_18_Mod_range_hashingENS_20_Default_ranged_hashENS_20_Prime_rehash_policyENS_17_Hashtable_traitsILb0ELb0ELb1EEELb1EEC2Ev:
	pushl	%ebp
	movl	%esp, %ebp
	subl	$4, %esp
	movl	%ecx, -4(%ebp)
	nop
	leave
	ret
	.section	.text$_ZNSt8__detail21_Hashtable_ebo_helperILi0ESaINS_10_Hash_nodeISt4pairIKiS2_IiiEELb0EEEELb1EEC2Ev,"x"
	.linkonce discard
	.align 2
	.globl	__ZNSt8__detail21_Hashtable_ebo_helperILi0ESaINS_10_Hash_nodeISt4pairIKiS2_IiiEELb0EEEELb1EEC2Ev
	.def	__ZNSt8__detail21_Hashtable_ebo_helperILi0ESaINS_10_Hash_nodeISt4pairIKiS2_IiiEELb0EEEELb1EEC2Ev;	.scl	2;	.type	32;	.endef
__ZNSt8__detail21_Hashtable_ebo_helperILi0ESaINS_10_Hash_nodeISt4pairIKiS2_IiiEELb0EEEELb1EEC2Ev:
	pushl	%ebp
	movl	%esp, %ebp
	subl	$24, %esp
	movl	%ecx, -12(%ebp)
	movl	-12(%ebp), %eax
	movl	%eax, %ecx
	call	__ZNSaINSt8__detail10_Hash_nodeISt4pairIKiS1_IiiEELb0EEEEC2Ev
	nop
	leave
	ret
	.section	.text$_ZNSt8__detail21_Hashtable_ebo_helperILi0ESaINS_10_Hash_nodeISt4pairIKiS2_IiiEELb0EEEELb1EED2Ev,"x"
	.linkonce discard
	.align 2
	.globl	__ZNSt8__detail21_Hashtable_ebo_helperILi0ESaINS_10_Hash_nodeISt4pairIKiS2_IiiEELb0EEEELb1EED2Ev
	.def	__ZNSt8__detail21_Hashtable_ebo_helperILi0ESaINS_10_Hash_nodeISt4pairIKiS2_IiiEELb0EEEELb1EED2Ev;	.scl	2;	.type	32;	.endef
__ZNSt8__detail21_Hashtable_ebo_helperILi0ESaINS_10_Hash_nodeISt4pairIKiS2_IiiEELb0EEEELb1EED2Ev:
	pushl	%ebp
	movl	%esp, %ebp
	subl	$24, %esp
	movl	%ecx, -12(%ebp)
	movl	-12(%ebp), %eax
	movl	%eax, %ecx
	call	__ZNSaINSt8__detail10_Hash_nodeISt4pairIKiS1_IiiEELb0EEEED2Ev
	nop
	leave
	ret
	.section	.text$_ZNSt8__detail16_Hashtable_allocISaINS_10_Hash_nodeISt4pairIKiS2_IiiEELb0EEEEEC2Ev,"x"
	.linkonce discard
	.align 2
	.globl	__ZNSt8__detail16_Hashtable_allocISaINS_10_Hash_nodeISt4pairIKiS2_IiiEELb0EEEEEC2Ev
	.def	__ZNSt8__detail16_Hashtable_allocISaINS_10_Hash_nodeISt4pairIKiS2_IiiEELb0EEEEEC2Ev;	.scl	2;	.type	32;	.endef
__ZNSt8__detail16_Hashtable_allocISaINS_10_Hash_nodeISt4pairIKiS2_IiiEELb0EEEEEC2Ev:
	pushl	%ebp
	movl	%esp, %ebp
	subl	$24, %esp
	movl	%ecx, -12(%ebp)
	movl	-12(%ebp), %eax
	movl	%eax, %ecx
	call	__ZNSt8__detail21_Hashtable_ebo_helperILi0ESaINS_10_Hash_nodeISt4pairIKiS2_IiiEELb0EEEELb1EEC2Ev
	nop
	leave
	ret
	.section	.text$_ZNSt8__detail16_Hashtable_allocISaINS_10_Hash_nodeISt4pairIKiS2_IiiEELb0EEEEED2Ev,"x"
	.linkonce discard
	.align 2
	.globl	__ZNSt8__detail16_Hashtable_allocISaINS_10_Hash_nodeISt4pairIKiS2_IiiEELb0EEEEED2Ev
	.def	__ZNSt8__detail16_Hashtable_allocISaINS_10_Hash_nodeISt4pairIKiS2_IiiEELb0EEEEED2Ev;	.scl	2;	.type	32;	.endef
__ZNSt8__detail16_Hashtable_allocISaINS_10_Hash_nodeISt4pairIKiS2_IiiEELb0EEEEED2Ev:
	pushl	%ebp
	movl	%esp, %ebp
	subl	$24, %esp
	movl	%ecx, -12(%ebp)
	movl	-12(%ebp), %eax
	movl	%eax, %ecx
	call	__ZNSt8__detail21_Hashtable_ebo_helperILi0ESaINS_10_Hash_nodeISt4pairIKiS2_IiiEELb0EEEELb1EED2Ev
	nop
	leave
	ret
	.section	.text$_ZNSt10_HashtableIiSt4pairIKiS0_IiiEESaIS3_ENSt8__detail10_Select1stESt8equal_toIiESt4hashIiENS5_18_Mod_range_hashingENS5_20_Default_ranged_hashENS5_20_Prime_rehash_policyENS5_17_Hashtable_traitsILb0ELb0ELb1EEEEC1Ev,"x"
	.linkonce discard
	.align 2
	.globl	__ZNSt10_HashtableIiSt4pairIKiS0_IiiEESaIS3_ENSt8__detail10_Select1stESt8equal_toIiESt4hashIiENS5_18_Mod_range_hashingENS5_20_Default_ranged_hashENS5_20_Prime_rehash_policyENS5_17_Hashtable_traitsILb0ELb0ELb1EEEEC1Ev
	.def	__ZNSt10_HashtableIiSt4pairIKiS0_IiiEESaIS3_ENSt8__detail10_Select1stESt8equal_toIiESt4hashIiENS5_18_Mod_range_hashingENS5_20_Default_ranged_hashENS5_20_Prime_rehash_policyENS5_17_Hashtable_traitsILb0ELb0ELb1EEEEC1Ev;	.scl	2;	.type	32;	.endef
__ZNSt10_HashtableIiSt4pairIKiS0_IiiEESaIS3_ENSt8__detail10_Select1stESt8equal_toIiESt4hashIiENS5_18_Mod_range_hashingENS5_20_Default_ranged_hashENS5_20_Prime_rehash_policyENS5_17_Hashtable_traitsILb0ELb0ELb1EEEEC1Ev:
	pushl	%ebp
	movl	%esp, %ebp
	subl	$40, %esp
	movl	%ecx, -12(%ebp)
	movl	-12(%ebp), %eax
	movl	%eax, %ecx
	call	__ZNSt8__detail15_Hashtable_baseIiSt4pairIKiS1_IiiEENS_10_Select1stESt8equal_toIiESt4hashIiENS_18_Mod_range_hashingENS_20_Default_ranged_hashENS_17_Hashtable_traitsILb0ELb0ELb1EEEEC2Ev
	movl	-12(%ebp), %eax
	movl	%eax, %ecx
	call	__ZNSt8__detail9_Map_baseIiSt4pairIKiS1_IiiEESaIS4_ENS_10_Select1stESt8equal_toIiESt4hashIiENS_18_Mod_range_hashingENS_20_Default_ranged_hashENS_20_Prime_rehash_policyENS_17_Hashtable_traitsILb0ELb0ELb1EEELb1EEC2Ev
	movl	-12(%ebp), %eax
	movl	%eax, %ecx
	call	__ZNSt8__detail7_InsertIiSt4pairIKiS1_IiiEESaIS4_ENS_10_Select1stESt8equal_toIiESt4hashIiENS_18_Mod_range_hashingENS_20_Default_ranged_hashENS_20_Prime_rehash_policyENS_17_Hashtable_traitsILb0ELb0ELb1EEELb0ELb1EEC2Ev
	movl	-12(%ebp), %eax
	movl	%eax, %ecx
	call	__ZNSt8__detail12_Rehash_baseIiSt4pairIKiS1_IiiEESaIS4_ENS_10_Select1stESt8equal_toIiESt4hashIiENS_18_Mod_range_hashingENS_20_Default_ranged_hashENS_20_Prime_rehash_policyENS_17_Hashtable_traitsILb0ELb0ELb1EEEEC2Ev
	movl	-12(%ebp), %eax
	movl	%eax, %ecx
	call	__ZNSt8__detail9_EqualityIiSt4pairIKiS1_IiiEESaIS4_ENS_10_Select1stESt8equal_toIiESt4hashIiENS_18_Mod_range_hashingENS_20_Default_ranged_hashENS_20_Prime_rehash_policyENS_17_Hashtable_traitsILb0ELb0ELb1EEELb1EEC2Ev
	movl	-12(%ebp), %eax
	movl	%eax, %ecx
	call	__ZNSt8__detail16_Hashtable_allocISaINS_10_Hash_nodeISt4pairIKiS2_IiiEELb0EEEEEC2Ev
	movl	-12(%ebp), %eax
	leal	24(%eax), %edx
	movl	-12(%ebp), %eax
	movl	%edx, (%eax)
	movl	-12(%ebp), %eax
	movl	$1, 4(%eax)
	movl	-12(%ebp), %eax
	addl	$8, %eax
	movl	%eax, %ecx
	call	__ZNSt8__detail15_Hash_node_baseC1Ev
	movl	-12(%ebp), %eax
	movl	$0, 12(%eax)
	movl	-12(%ebp), %eax
	addl	$16, %eax
	fld1
	fstps	(%esp)
	movl	%eax, %ecx
	call	__ZNSt8__detail20_Prime_rehash_policyC1Ef
	subl	$4, %esp
	movl	-12(%ebp), %eax
	movl	$0, 24(%eax)
	nop
	leave
	ret
	.section	.text$_ZNSt13unordered_mapIiSt4pairIiiESt4hashIiESt8equal_toIiESaIS0_IKiS1_EEEC1Ev,"x"
	.linkonce discard
	.align 2
	.globl	__ZNSt13unordered_mapIiSt4pairIiiESt4hashIiESt8equal_toIiESaIS0_IKiS1_EEEC1Ev
	.def	__ZNSt13unordered_mapIiSt4pairIiiESt4hashIiESt8equal_toIiESaIS0_IKiS1_EEEC1Ev;	.scl	2;	.type	32;	.endef
__ZNSt13unordered_mapIiSt4pairIiiESt4hashIiESt8equal_toIiESaIS0_IKiS1_EEEC1Ev:
	pushl	%ebp
	movl	%esp, %ebp
	subl	$24, %esp
	movl	%ecx, -12(%ebp)
	movl	-12(%ebp), %eax
	movl	%eax, %ecx
	call	__ZNSt10_HashtableIiSt4pairIKiS0_IiiEESaIS3_ENSt8__detail10_Select1stESt8equal_toIiESt4hashIiENS5_18_Mod_range_hashingENS5_20_Default_ranged_hashENS5_20_Prime_rehash_policyENS5_17_Hashtable_traitsILb0ELb0ELb1EEEEC1Ev
	nop
	leave
	ret
	.section	.text$_ZNSt13unordered_mapIiSt4pairIiiESt4hashIiESt8equal_toIiESaIS0_IKiS1_EEED1Ev,"x"
	.linkonce discard
	.align 2
	.globl	__ZNSt13unordered_mapIiSt4pairIiiESt4hashIiESt8equal_toIiESaIS0_IKiS1_EEED1Ev
	.def	__ZNSt13unordered_mapIiSt4pairIiiESt4hashIiESt8equal_toIiESaIS0_IKiS1_EEED1Ev;	.scl	2;	.type	32;	.endef
__ZNSt13unordered_mapIiSt4pairIiiESt4hashIiESt8equal_toIiESaIS0_IKiS1_EEED1Ev:
	pushl	%ebp
	movl	%esp, %ebp
	subl	$24, %esp
	movl	%ecx, -12(%ebp)
	movl	-12(%ebp), %eax
	movl	%eax, %ecx
	call	__ZNSt10_HashtableIiSt4pairIKiS0_IiiEESaIS3_ENSt8__detail10_Select1stESt8equal_toIiESt4hashIiENS5_18_Mod_range_hashingENS5_20_Default_ranged_hashENS5_20_Prime_rehash_policyENS5_17_Hashtable_traitsILb0ELb0ELb1EEEED1Ev
	nop
	leave
	ret
	.section	.text$_ZSt7forwardIRiEOT_RNSt16remove_referenceIS1_E4typeE,"x"
	.linkonce discard
	.globl	__ZSt7forwardIRiEOT_RNSt16remove_referenceIS1_E4typeE
	.def	__ZSt7forwardIRiEOT_RNSt16remove_referenceIS1_E4typeE;	.scl	2;	.type	32;	.endef
__ZSt7forwardIRiEOT_RNSt16remove_referenceIS1_E4typeE:
	pushl	%ebp
	movl	%esp, %ebp
	movl	8(%ebp), %eax
	popl	%ebp
	ret
	.section	.text$_ZNSt4pairIiiEC1IRiS2_vEEOT_OT0_,"x"
	.linkonce discard
	.align 2
	.globl	__ZNSt4pairIiiEC1IRiS2_vEEOT_OT0_
	.def	__ZNSt4pairIiiEC1IRiS2_vEEOT_OT0_;	.scl	2;	.type	32;	.endef
__ZNSt4pairIiiEC1IRiS2_vEEOT_OT0_:
	pushl	%ebp
	movl	%esp, %ebp
	subl	$8, %esp
	movl	%ecx, -4(%ebp)
	movl	8(%ebp), %eax
	movl	%eax, (%esp)
	call	__ZSt7forwardIRiEOT_RNSt16remove_referenceIS1_E4typeE
	movl	(%eax), %edx
	movl	-4(%ebp), %eax
	movl	%edx, (%eax)
	movl	12(%ebp), %eax
	movl	%eax, (%esp)
	call	__ZSt7forwardIRiEOT_RNSt16remove_referenceIS1_E4typeE
	movl	(%eax), %edx
	movl	-4(%ebp), %eax
	movl	%edx, 4(%eax)
	nop
	leave
	ret	$8
	.def	___main;	.scl	2;	.type	32;	.endef
	.section .rdata,"dr"
LC4:
	.ascii " -> \0"
	.text
	.globl	_main
	.def	_main;	.scl	2;	.type	32;	.endef
_main:
	leal	4(%esp), %ecx
	andl	$-16, %esp
	pushl	-4(%ecx)
	pushl	%ebp
	movl	%esp, %ebp
	pushl	%edi
	pushl	%esi
	pushl	%ebx
	pushl	%ecx
	subl	$296, %esp
	movl	$___gxx_personality_sj0, -260(%ebp)
	movl	$LLSDA11462, -256(%ebp)
	leal	-252(%ebp), %eax
	leal	-24(%ebp), %ebx
	movl	%ebx, (%eax)
	movl	$L86, %edx
	movl	%edx, 4(%eax)
	movl	%esp, 8(%eax)
	leal	-284(%ebp), %eax
	movl	%eax, (%esp)
	call	__Unwind_SjLj_Register
	call	___main
	movl	$0, (%esp)
	movl	$-1, -280(%ebp)
	call	__ZNSt8ios_base15sync_with_stdioEb
	movl	$0, (%esp)
	movl	$__ZSt3cin+8, %ecx
	call	__ZNSt9basic_iosIcSt11char_traitsIcEE3tieEPSo
	subl	$4, %esp
	movl	$0, (%esp)
	movl	$__ZSt4cout+4, %ecx
	call	__ZNSt9basic_iosIcSt11char_traitsIcEE3tieEPSo
	subl	$4, %esp
	leal	-100(%ebp), %eax
	movl	%eax, (%esp)
	movl	$__ZSt3cin, %ecx
	call	__ZNSirsERi
	subl	$4, %esp
	leal	-93(%ebp), %eax
	movl	%eax, %ecx
	call	__ZNSaIiEC1Ev
	movl	-100(%ebp), %eax
	movl	%eax, %ecx
	leal	-112(%ebp), %eax
	leal	-93(%ebp), %edx
	movl	%edx, 4(%esp)
	movl	%ecx, (%esp)
	movl	$1, -280(%ebp)
	movl	%eax, %ecx
	call	__ZNSt6vectorIiSaIiEEC1EjRKS0_
	subl	$8, %esp
	leal	-93(%ebp), %eax
	movl	%eax, %ecx
	call	__ZNSaIiED1Ev
	movl	$0, -28(%ebp)
L70:
	movl	-100(%ebp), %eax
	cmpl	%eax, -28(%ebp)
	jge	L69
	movl	-28(%ebp), %edx
	leal	-112(%ebp), %eax
	movl	%edx, (%esp)
	movl	%eax, %ecx
	call	__ZNSt6vectorIiSaIiEEixEj
	subl	$4, %esp
	movl	%eax, (%esp)
	movl	$2, -280(%ebp)
	movl	$__ZSt3cin, %ecx
	call	__ZNSirsERi
	subl	$4, %esp
	addl	$1, -28(%ebp)
	jmp	L70
L69:
	leal	-112(%ebp), %eax
	movl	%eax, %ecx
	call	__ZNSt6vectorIiSaIiEE3endEv
	movl	%eax, -288(%ebp)
	leal	-112(%ebp), %eax
	movl	%eax, %ecx
	call	__ZNSt6vectorIiSaIiEE5beginEv
	movl	-288(%ebp), %esi
	movl	%esi, 4(%esp)
	movl	%eax, (%esp)
	call	__ZSt11max_elementIN9__gnu_cxx17__normal_iteratorIPiSt6vectorIiSaIiEEEEET_S7_S7_
	movl	%eax, -92(%ebp)
	leal	-92(%ebp), %eax
	movl	%eax, %ecx
	call	__ZNK9__gnu_cxx17__normal_iteratorIPiSt6vectorIiSaIiEEEdeEv
	movl	(%eax), %eax
	movl	%eax, -56(%ebp)
	leal	-140(%ebp), %eax
	movl	-56(%ebp), %edx
	movl	%edx, 4(%esp)
	leal	-113(%ebp), %edx
	movl	%edx, (%esp)
	movl	$2, -280(%ebp)
	movl	%eax, %ecx
	call	__ZZ4mainENKUliE_clEi
	subl	$8, %esp
	leal	-140(%ebp), %eax
	movl	%eax, %ecx
	call	__ZNKSt7__cxx1112basic_stringIcSt11char_traitsIcESaIcEE6lengthEv
	movl	%eax, -60(%ebp)
	leal	-168(%ebp), %eax
	movl	%eax, %ecx
	call	__ZNSt13unordered_mapIiSt4pairIiiESt4hashIiESt8equal_toIiESaIS0_IKiS1_EEEC1Ev
	movl	$0, -32(%ebp)
L73:
	movl	-100(%ebp), %eax
	cmpl	%eax, -32(%ebp)
	jge	L71
	movl	-32(%ebp), %edx
	leal	-112(%ebp), %eax
	movl	%edx, (%esp)
	movl	%eax, %ecx
	call	__ZNSt6vectorIiSaIiEEixEj
	subl	$4, %esp
	movl	(%eax), %eax
	movl	%eax, -196(%ebp)
	movl	-196(%ebp), %edx
	leal	-220(%ebp), %eax
	movl	%edx, 4(%esp)
	leal	-113(%ebp), %edx
	movl	%edx, (%esp)
	movl	$4, -280(%ebp)
	movl	%eax, %ecx
	call	__ZZ4mainENKUliE_clEi
	subl	$8, %esp
	leal	-220(%ebp), %eax
	movl	%eax, 4(%esp)
	movl	$__ZSt4cout, (%esp)
	movl	$3, -280(%ebp)
	call	__ZStlsIcSt11char_traitsIcESaIcEERSt13basic_ostreamIT_T0_ES7_RKNSt7__cxx1112basic_stringIS4_S5_T1_EE
	movl	$LC4, 4(%esp)
	movl	%eax, (%esp)
	call	__ZStlsISt11char_traitsIcEERSt13basic_ostreamIcT_ES5_PKc
	leal	-220(%ebp), %eax
	movl	%eax, %ecx
	call	__ZNKSt7__cxx1112basic_stringIcSt11char_traitsIcESaIcEE6lengthEv
	cmpl	-60(%ebp), %eax
	setl	%al
	testb	%al, %al
	je	L72
	leal	-220(%ebp), %eax
	movl	%eax, %ecx
	call	__ZNKSt7__cxx1112basic_stringIcSt11char_traitsIcESaIcEE6lengthEv
	movl	%eax, %edx
	movl	-60(%ebp), %eax
	subl	%edx, %eax
	movl	%eax, -288(%ebp)
	leal	-220(%ebp), %eax
	movl	%eax, %ecx
	call	__ZNSt7__cxx1112basic_stringIcSt11char_traitsIcESaIcEE5beginEv
	movl	%eax, -84(%ebp)
	leal	-88(%ebp), %eax
	leal	-84(%ebp), %edx
	movl	%edx, (%esp)
	movl	%eax, %ecx
	call	__ZN9__gnu_cxx17__normal_iteratorIPKcNSt7__cxx1112basic_stringIcSt11char_traitsIcESaIcEEEEC1IPcEERKNS0_IT_NS_11__enable_ifIXsrSt10__are_sameISC_SB_E7__valueES8_E6__typeEEE
	subl	$4, %esp
	leal	-220(%ebp), %eax
	movl	$48, 8(%esp)
	movl	-288(%ebp), %edi
	movl	%edi, 4(%esp)
	movl	-88(%ebp), %edx
	movl	%edx, (%esp)
	movl	%eax, %ecx
	call	__ZNSt7__cxx1112basic_stringIcSt11char_traitsIcESaIcEE6insertEN9__gnu_cxx17__normal_iteratorIPKcS4_EEjc
	subl	$12, %esp
L72:
	leal	-220(%ebp), %eax
	movl	%eax, 4(%esp)
	movl	$__ZSt4cout, (%esp)
	movl	$3, -280(%ebp)
	call	__ZStlsIcSt11char_traitsIcESaIcEERSt13basic_ostreamIT_T0_ES7_RKNSt7__cxx1112basic_stringIS4_S5_T1_EE
	movl	$__ZSt4endlIcSt11char_traitsIcEERSt13basic_ostreamIT_T0_ES6_, (%esp)
	movl	%eax, %ecx
	call	__ZNSolsEPFRSoS_E
	subl	$4, %esp
	movb	$48, -78(%ebp)
	leal	-220(%ebp), %eax
	movl	%eax, %ecx
	call	__ZNSt7__cxx1112basic_stringIcSt11char_traitsIcESaIcEE3endEv
	movl	%eax, -288(%ebp)
	leal	-220(%ebp), %eax
	movl	%eax, %ecx
	call	__ZNSt7__cxx1112basic_stringIcSt11char_traitsIcESaIcEE5beginEv
	movl	%eax, %edx
	leal	-78(%ebp), %eax
	movl	%eax, 8(%esp)
	movl	-288(%ebp), %eax
	movl	%eax, 4(%esp)
	movl	%edx, (%esp)
	call	__ZSt5countIN9__gnu_cxx17__normal_iteratorIPcNSt7__cxx1112basic_stringIcSt11char_traitsIcESaIcEEEEEcENSt15iterator_traitsIT_E15difference_typeESB_SB_RKT0_
	movl	%eax, -224(%ebp)
	movb	$49, -77(%ebp)
	leal	-220(%ebp), %eax
	movl	%eax, %ecx
	call	__ZNSt7__cxx1112basic_stringIcSt11char_traitsIcESaIcEE3endEv
	movl	%eax, -288(%ebp)
	leal	-220(%ebp), %eax
	movl	%eax, %ecx
	call	__ZNSt7__cxx1112basic_stringIcSt11char_traitsIcESaIcEE5beginEv
	movl	%eax, %edx
	leal	-77(%ebp), %eax
	movl	%eax, 8(%esp)
	movl	-288(%ebp), %eax
	movl	%eax, 4(%esp)
	movl	%edx, (%esp)
	call	__ZSt5countIN9__gnu_cxx17__normal_iteratorIPcNSt7__cxx1112basic_stringIcSt11char_traitsIcESaIcEEEEEcENSt15iterator_traitsIT_E15difference_typeESB_SB_RKT0_
	movl	%eax, -228(%ebp)
	leal	-76(%ebp), %eax
	leal	-228(%ebp), %edx
	movl	%edx, 4(%esp)
	leal	-224(%ebp), %edx
	movl	%edx, (%esp)
	movl	%eax, %ecx
	call	__ZNSt4pairIiiEC1IRiS2_vEEOT_OT0_
	subl	$8, %esp
	leal	-168(%ebp), %eax
	leal	-196(%ebp), %edx
	movl	%edx, (%esp)
	movl	%eax, %ecx
	call	__ZNSt13unordered_mapIiSt4pairIiiESt4hashIiESt8equal_toIiESaIS0_IKiS1_EEEixERS6_
	subl	$4, %esp
	movl	%eax, %edx
	leal	-76(%ebp), %eax
	movl	%eax, (%esp)
	movl	%edx, %ecx
	call	__ZNSt4pairIiiEaSEOS0_
	subl	$4, %esp
	leal	-220(%ebp), %eax
	movl	%eax, %ecx
	call	__ZNSt7__cxx1112basic_stringIcSt11char_traitsIcESaIcEED1Ev
	addl	$1, -32(%ebp)
	jmp	L73
L71:
	movl	$-1, -36(%ebp)
	movl	$0, -40(%ebp)
L79:
	movl	-100(%ebp), %eax
	movl	$1, %edx
	movl	%eax, %ecx
	sall	%cl, %edx
	movl	%edx, %eax
	cmpl	-40(%ebp), %eax
	jle	L74
	movl	$0, -48(%ebp)
	movl	-48(%ebp), %eax
	movl	%eax, -44(%ebp)
	movl	$0, -52(%ebp)
L77:
	movl	-100(%ebp), %eax
	cmpl	%eax, -52(%ebp)
	jge	L75
	movl	-52(%ebp), %eax
	movl	-40(%ebp), %edx
	movl	%eax, %ecx
	sarl	%cl, %edx
	movl	%edx, %eax
	andl	$1, %eax
	testl	%eax, %eax
	je	L76
	movl	-52(%ebp), %edx
	leal	-112(%ebp), %eax
	movl	%edx, (%esp)
	movl	%eax, %ecx
	call	__ZNSt6vectorIiSaIiEEixEj
	subl	$4, %esp
	movl	%eax, %edx
	leal	-168(%ebp), %eax
	movl	%edx, (%esp)
	movl	$4, -280(%ebp)
	movl	%eax, %ecx
	call	__ZNSt13unordered_mapIiSt4pairIiiESt4hashIiESt8equal_toIiESaIS0_IKiS1_EEEixERS6_
	subl	$4, %esp
	movl	(%eax), %eax
	addl	%eax, -44(%ebp)
	movl	-52(%ebp), %edx
	leal	-112(%ebp), %eax
	movl	%edx, (%esp)
	movl	%eax, %ecx
	call	__ZNSt6vectorIiSaIiEEixEj
	subl	$4, %esp
	movl	%eax, %edx
	leal	-168(%ebp), %eax
	movl	%edx, (%esp)
	movl	%eax, %ecx
	call	__ZNSt13unordered_mapIiSt4pairIiiESt4hashIiESt8equal_toIiESaIS0_IKiS1_EEEixERS6_
	subl	$4, %esp
	movl	4(%eax), %eax
	addl	%eax, -48(%ebp)
L76:
	addl	$1, -52(%ebp)
	jmp	L77
L75:
	movl	-44(%ebp), %eax
	cmpl	-48(%ebp), %eax
	jne	L78
	addl	$1, -36(%ebp)
L78:
	addl	$1, -40(%ebp)
	jmp	L79
L74:
	movl	-36(%ebp), %eax
	movl	%eax, (%esp)
	movl	$4, -280(%ebp)
	movl	$__ZSt4cout, %ecx
	call	__ZNSolsEi
	subl	$4, %esp
	movl	$__ZSt4endlIcSt11char_traitsIcEERSt13basic_ostreamIT_T0_ES6_, (%esp)
	movl	%eax, %ecx
	call	__ZNSolsEPFRSoS_E
	subl	$4, %esp
	leal	-192(%ebp), %eax
	movl	-36(%ebp), %edx
	movl	%edx, 4(%esp)
	leal	-113(%ebp), %edx
	movl	%edx, (%esp)
	movl	%eax, %ecx
	call	__ZZ4mainENKUliE_clEi
	subl	$8, %esp
	leal	-192(%ebp), %eax
	movl	%eax, %ecx
	call	__ZNKSt7__cxx1112basic_stringIcSt11char_traitsIcESaIcEE6lengthEv
	movl	%eax, %edx
	movl	-60(%ebp), %eax
	subl	%edx, %eax
	movl	%eax, -288(%ebp)
	leal	-192(%ebp), %eax
	movl	%eax, %ecx
	call	__ZNSt7__cxx1112basic_stringIcSt11char_traitsIcESaIcEE5beginEv
	movl	%eax, -64(%ebp)
	leal	-68(%ebp), %eax
	leal	-64(%ebp), %edx
	movl	%edx, (%esp)
	movl	%eax, %ecx
	call	__ZN9__gnu_cxx17__normal_iteratorIPKcNSt7__cxx1112basic_stringIcSt11char_traitsIcESaIcEEEEC1IPcEERKNS0_IT_NS_11__enable_ifIXsrSt10__are_sameISC_SB_E7__valueES8_E6__typeEEE
	subl	$4, %esp
	leal	-192(%ebp), %eax
	movl	$48, 8(%esp)
	movl	-288(%ebp), %ebx
	movl	%ebx, 4(%esp)
	movl	-68(%ebp), %edx
	movl	%edx, (%esp)
	movl	$5, -280(%ebp)
	movl	%eax, %ecx
	call	__ZNSt7__cxx1112basic_stringIcSt11char_traitsIcESaIcEE6insertEN9__gnu_cxx17__normal_iteratorIPKcS4_EEjc
	subl	$12, %esp
	leal	-192(%ebp), %eax
	movl	%eax, 4(%esp)
	movl	$__ZSt4cout, (%esp)
	call	__ZStlsIcSt11char_traitsIcESaIcEERSt13basic_ostreamIT_T0_ES7_RKNSt7__cxx1112basic_stringIS4_S5_T1_EE
	movl	$__ZSt4endlIcSt11char_traitsIcEERSt13basic_ostreamIT_T0_ES6_, (%esp)
	movl	%eax, %ecx
	call	__ZNSolsEPFRSoS_E
	subl	$4, %esp
	movl	$0, -288(%ebp)
	leal	-192(%ebp), %eax
	movl	%eax, %ecx
	call	__ZNSt7__cxx1112basic_stringIcSt11char_traitsIcESaIcEED1Ev
	leal	-168(%ebp), %eax
	movl	%eax, %ecx
	call	__ZNSt13unordered_mapIiSt4pairIiiESt4hashIiESt8equal_toIiESaIS0_IKiS1_EEED1Ev
	leal	-140(%ebp), %eax
	movl	%eax, %ecx
	call	__ZNSt7__cxx1112basic_stringIcSt11char_traitsIcESaIcEED1Ev
	leal	-112(%ebp), %eax
	movl	%eax, %ecx
	call	__ZNSt6vectorIiSaIiEED1Ev
	movl	-288(%ebp), %eax
	movl	%eax, -288(%ebp)
	jmp	L92
L86:
	leal	24(%ebp), %ebp
	movl	-276(%ebp), %edx
	movl	-280(%ebp), %eax
	testl	%eax, %eax
	je	L87
	subl	$1, %eax
	testl	%eax, %eax
	je	L88
	subl	$1, %eax
	testl	%eax, %eax
	je	L89
	subl	$1, %eax
	testl	%eax, %eax
	je	L90
	subl	$1, %eax
	testl	%eax, %eax
	je	L91
	subl	$1, %eax
	ud2
L87:
	movl	%edx, -288(%ebp)
	leal	-93(%ebp), %eax
	movl	%eax, %ecx
	call	__ZNSaIiED1Ev
	movl	-288(%ebp), %eax
	movl	%eax, (%esp)
	movl	$-1, -280(%ebp)
	call	__Unwind_SjLj_Resume
L89:
	movl	%edx, -288(%ebp)
	leal	-220(%ebp), %eax
	movl	%eax, %ecx
	call	__ZNSt7__cxx1112basic_stringIcSt11char_traitsIcESaIcEED1Ev
	movl	-288(%ebp), %eax
	movl	%eax, -288(%ebp)
	jmp	L83
L91:
	movl	%edx, -288(%ebp)
	leal	-192(%ebp), %eax
	movl	%eax, %ecx
	call	__ZNSt7__cxx1112basic_stringIcSt11char_traitsIcESaIcEED1Ev
	movl	-288(%ebp), %eax
	movl	%eax, -288(%ebp)
	jmp	L83
L90:
	movl	%edx, -288(%ebp)
L83:
	leal	-168(%ebp), %eax
	movl	%eax, %ecx
	call	__ZNSt13unordered_mapIiSt4pairIiiESt4hashIiESt8equal_toIiESaIS0_IKiS1_EEED1Ev
	movl	-288(%ebp), %eax
	movl	%eax, -288(%ebp)
	leal	-140(%ebp), %eax
	movl	%eax, %ecx
	call	__ZNSt7__cxx1112basic_stringIcSt11char_traitsIcESaIcEED1Ev
	movl	-288(%ebp), %eax
	movl	%eax, -288(%ebp)
	jmp	L85
L88:
	movl	%edx, -288(%ebp)
L85:
	leal	-112(%ebp), %eax
	movl	%eax, %ecx
	call	__ZNSt6vectorIiSaIiEED1Ev
	movl	-288(%ebp), %eax
	movl	%eax, (%esp)
	movl	$-1, -280(%ebp)
	call	__Unwind_SjLj_Resume
L92:
	leal	-284(%ebp), %eax
	movl	%eax, (%esp)
	call	__Unwind_SjLj_Unregister
	movl	-288(%ebp), %eax
	leal	-16(%ebp), %esp
	popl	%ecx
	popl	%ebx
	popl	%esi
	popl	%edi
	popl	%ebp
	leal	-4(%ecx), %esp
	ret
	.section	.gcc_except_table,"w"
LLSDA11462:
	.byte	0xff
	.byte	0xff
	.byte	0x1
	.uleb128 LLSDACSE11462-LLSDACSB11462
LLSDACSB11462:
	.uleb128 0
	.uleb128 0
	.uleb128 0x1
	.uleb128 0
	.uleb128 0x2
	.uleb128 0
	.uleb128 0x3
	.uleb128 0
	.uleb128 0x4
	.uleb128 0
LLSDACSE11462:
	.text
	.section	.text$_ZN9__gnu_cxx12__to_xstringINSt7__cxx1112basic_stringIcSt11char_traitsIcESaIcEEEcEET_PFiPT0_jPKS8_PcEjSB_z,"x"
	.linkonce discard
	.globl	__ZN9__gnu_cxx12__to_xstringINSt7__cxx1112basic_stringIcSt11char_traitsIcESaIcEEEcEET_PFiPT0_jPKS8_PcEjSB_z
	.def	__ZN9__gnu_cxx12__to_xstringINSt7__cxx1112basic_stringIcSt11char_traitsIcESaIcEEEcEET_PFiPT0_jPKS8_PcEjSB_z;	.scl	2;	.type	32;	.endef
__ZN9__gnu_cxx12__to_xstringINSt7__cxx1112basic_stringIcSt11char_traitsIcESaIcEEEcEET_PFiPT0_jPKS8_PcEjSB_z:
	pushl	%ebp
	movl	%esp, %ebp
	pushl	%edi
	pushl	%esi
	pushl	%ebx
	subl	$108, %esp
	movl	$___gxx_personality_sj0, -68(%ebp)
	movl	$LLSDA11554, -64(%ebp)
	leal	-60(%ebp), %eax
	leal	-24(%ebp), %ebx
	movl	%ebx, (%eax)
	movl	$L96, %edx
	movl	%edx, 4(%eax)
	movl	%esp, 8(%eax)
	leal	-92(%ebp), %eax
	movl	%eax, (%esp)
	call	__Unwind_SjLj_Register
	movl	16(%ebp), %eax
	leal	15(%eax), %edx
	movl	$16, %eax
	subl	$1, %eax
	addl	%edx, %eax
	movl	$16, %esi
	movl	$0, %edx
	divl	%esi
	imull	$16, %eax, %eax
	call	___chkstk_ms
	subl	%eax, %esp
	leal	16(%esp), %eax
	addl	$15, %eax
	shrl	$4, %eax
	sall	$4, %eax
	movl	%eax, -28(%ebp)
	leal	24(%ebp), %eax
	movl	%eax, -40(%ebp)
	movl	-40(%ebp), %eax
	movl	%eax, 12(%esp)
	movl	20(%ebp), %eax
	movl	%eax, 8(%esp)
	movl	16(%ebp), %eax
	movl	%eax, 4(%esp)
	movl	-28(%ebp), %eax
	movl	%eax, (%esp)
	movl	12(%ebp), %eax
	movl	$-1, -88(%ebp)
	call	*%eax
	movl	%eax, -32(%ebp)
	leal	-33(%ebp), %eax
	movl	%eax, %ecx
	call	__ZNSaIcEC1Ev
	movl	-32(%ebp), %edx
	movl	-28(%ebp), %eax
	addl	%eax, %edx
	leal	-33(%ebp), %eax
	movl	%eax, 8(%esp)
	movl	%edx, 4(%esp)
	movl	-28(%ebp), %eax
	movl	%eax, (%esp)
	movl	$1, -88(%ebp)
	movl	8(%ebp), %ecx
	call	__ZNSt7__cxx1112basic_stringIcSt11char_traitsIcESaIcEEC1IPcvEET_S7_RKS3_
	subl	$12, %esp
	leal	-33(%ebp), %eax
	movl	%eax, %ecx
	call	__ZNSaIcED1Ev
	jmp	L98
L96:
	leal	24(%ebp), %ebp
	movl	-84(%ebp), %eax
	movl	%eax, -96(%ebp)
	leal	-33(%ebp), %eax
	movl	%eax, %ecx
	call	__ZNSaIcED1Ev
	movl	-96(%ebp), %eax
	movl	%eax, (%esp)
	movl	$-1, -88(%ebp)
	call	__Unwind_SjLj_Resume
L98:
	leal	-92(%ebp), %eax
	movl	%eax, (%esp)
	call	__Unwind_SjLj_Unregister
	movl	8(%ebp), %eax
	leal	-12(%ebp), %esp
	popl	%ebx
	popl	%esi
	popl	%edi
	popl	%ebp
	ret
	.section	.gcc_except_table,"w"
LLSDA11554:
	.byte	0xff
	.byte	0xff
	.byte	0x1
	.uleb128 LLSDACSE11554-LLSDACSB11554
LLSDACSB11554:
	.uleb128 0
	.uleb128 0
LLSDACSE11554:
	.section	.text$_ZN9__gnu_cxx12__to_xstringINSt7__cxx1112basic_stringIcSt11char_traitsIcESaIcEEEcEET_PFiPT0_jPKS8_PcEjSB_z,"x"
	.linkonce discard
	.section	.text$_ZNSt7__cxx1112basic_stringIcSt11char_traitsIcESaIcEE12_Alloc_hiderD1Ev,"x"
	.linkonce discard
	.align 2
	.globl	__ZNSt7__cxx1112basic_stringIcSt11char_traitsIcESaIcEE12_Alloc_hiderD1Ev
	.def	__ZNSt7__cxx1112basic_stringIcSt11char_traitsIcESaIcEE12_Alloc_hiderD1Ev;	.scl	2;	.type	32;	.endef
__ZNSt7__cxx1112basic_stringIcSt11char_traitsIcESaIcEE12_Alloc_hiderD1Ev:
	pushl	%ebp
	movl	%esp, %ebp
	subl	$24, %esp
	movl	%ecx, -12(%ebp)
	movl	-12(%ebp), %eax
	movl	%eax, %ecx
	call	__ZNSaIcED2Ev
	nop
	leave
	ret
	.section	.text$_ZNSaIiEC1Ev,"x"
	.linkonce discard
	.align 2
	.globl	__ZNSaIiEC1Ev
	.def	__ZNSaIiEC1Ev;	.scl	2;	.type	32;	.endef
__ZNSaIiEC1Ev:
	pushl	%ebp
	movl	%esp, %ebp
	subl	$24, %esp
	movl	%ecx, -12(%ebp)
	movl	-12(%ebp), %eax
	movl	%eax, %ecx
	call	__ZN9__gnu_cxx13new_allocatorIiEC2Ev
	nop
	leave
	ret
	.section	.text$_ZNSaIiED2Ev,"x"
	.linkonce discard
	.align 2
	.globl	__ZNSaIiED2Ev
	.def	__ZNSaIiED2Ev;	.scl	2;	.type	32;	.endef
__ZNSaIiED2Ev:
	pushl	%ebp
	movl	%esp, %ebp
	subl	$24, %esp
	movl	%ecx, -12(%ebp)
	movl	-12(%ebp), %eax
	movl	%eax, %ecx
	call	__ZN9__gnu_cxx13new_allocatorIiED2Ev
	nop
	leave
	ret
	.section	.text$_ZNSaIiED1Ev,"x"
	.linkonce discard
	.align 2
	.globl	__ZNSaIiED1Ev
	.def	__ZNSaIiED1Ev;	.scl	2;	.type	32;	.endef
__ZNSaIiED1Ev:
	pushl	%ebp
	movl	%esp, %ebp
	subl	$24, %esp
	movl	%ecx, -12(%ebp)
	movl	-12(%ebp), %eax
	movl	%eax, %ecx
	call	__ZN9__gnu_cxx13new_allocatorIiED2Ev
	nop
	leave
	ret
	.section	.text$_ZNSt6vectorIiSaIiEEC1EjRKS0_,"x"
	.linkonce discard
	.align 2
	.globl	__ZNSt6vectorIiSaIiEEC1EjRKS0_
	.def	__ZNSt6vectorIiSaIiEEC1EjRKS0_;	.scl	2;	.type	32;	.endef
__ZNSt6vectorIiSaIiEEC1EjRKS0_:
	pushl	%ebp
	movl	%esp, %ebp
	pushl	%edi
	pushl	%esi
	pushl	%ebx
	subl	$92, %esp
	movl	%ecx, -28(%ebp)
	movl	$___gxx_personality_sj0, -56(%ebp)
	movl	$LLSDA12007, -52(%ebp)
	leal	-48(%ebp), %eax
	leal	-24(%ebp), %ebx
	movl	%ebx, (%eax)
	movl	$L105, %edx
	movl	%edx, 4(%eax)
	movl	%esp, 8(%eax)
	leal	-80(%ebp), %eax
	movl	%eax, (%esp)
	call	__Unwind_SjLj_Register
	movl	-28(%ebp), %eax
	movl	12(%ebp), %edx
	movl	%edx, 4(%esp)
	movl	8(%ebp), %edx
	movl	%edx, (%esp)
	movl	$-1, -76(%ebp)
	movl	%eax, %ecx
	call	__ZNSt12_Vector_baseIiSaIiEEC2EjRKS0_
	subl	$8, %esp
	movl	-28(%ebp), %eax
	movl	8(%ebp), %edx
	movl	%edx, (%esp)
	movl	$1, -76(%ebp)
	movl	%eax, %ecx
	call	__ZNSt6vectorIiSaIiEE21_M_default_initializeEj
	subl	$4, %esp
	jmp	L107
L105:
	leal	24(%ebp), %ebp
	movl	-72(%ebp), %eax
	movl	%eax, -84(%ebp)
	movl	-28(%ebp), %eax
	movl	%eax, %ecx
	call	__ZNSt12_Vector_baseIiSaIiEED2Ev
	movl	-84(%ebp), %eax
	movl	%eax, (%esp)
	movl	$-1, -76(%ebp)
	call	__Unwind_SjLj_Resume
L107:
	leal	-80(%ebp), %eax
	movl	%eax, (%esp)
	call	__Unwind_SjLj_Unregister
	leal	-12(%ebp), %esp
	popl	%ebx
	popl	%esi
	popl	%edi
	popl	%ebp
	ret	$8
	.section	.gcc_except_table,"w"
LLSDA12007:
	.byte	0xff
	.byte	0xff
	.byte	0x1
	.uleb128 LLSDACSE12007-LLSDACSB12007
LLSDACSB12007:
	.uleb128 0
	.uleb128 0
LLSDACSE12007:
	.section	.text$_ZNSt6vectorIiSaIiEEC1EjRKS0_,"x"
	.linkonce discard
	.section	.text$_ZNSt6vectorIiSaIiEED1Ev,"x"
	.linkonce discard
	.align 2
	.globl	__ZNSt6vectorIiSaIiEED1Ev
	.def	__ZNSt6vectorIiSaIiEED1Ev;	.scl	2;	.type	32;	.endef
__ZNSt6vectorIiSaIiEED1Ev:
	pushl	%ebp
	movl	%esp, %ebp
	subl	$88, %esp
	movl	%ecx, -12(%ebp)
	movl	$___gxx_personality_sj0, -40(%ebp)
	movl	$LLSDA12010, -36(%ebp)
	leal	-64(%ebp), %eax
	movl	%eax, (%esp)
	call	__Unwind_SjLj_Register
	movl	-12(%ebp), %eax
	movl	%eax, %ecx
	call	__ZNSt12_Vector_baseIiSaIiEE19_M_get_Tp_allocatorEv
	movl	%eax, %ecx
	movl	-12(%ebp), %eax
	movl	4(%eax), %edx
	movl	-12(%ebp), %eax
	movl	(%eax), %eax
	movl	%ecx, 8(%esp)
	movl	%edx, 4(%esp)
	movl	%eax, (%esp)
	movl	$0, -60(%ebp)
	call	__ZSt8_DestroyIPiiEvT_S1_RSaIT0_E
	movl	-12(%ebp), %eax
	movl	%eax, %ecx
	call	__ZNSt12_Vector_baseIiSaIiEED2Ev
	nop
	leal	-64(%ebp), %eax
	movl	%eax, (%esp)
	call	__Unwind_SjLj_Unregister
	leave
	ret
	.section	.gcc_except_table,"w"
LLSDA12010:
	.byte	0xff
	.byte	0xff
	.byte	0x1
	.uleb128 LLSDACSE12010-LLSDACSB12010
LLSDACSB12010:
LLSDACSE12010:
	.section	.text$_ZNSt6vectorIiSaIiEED1Ev,"x"
	.linkonce discard
	.section	.text$_ZNSt6vectorIiSaIiEEixEj,"x"
	.linkonce discard
	.align 2
	.globl	__ZNSt6vectorIiSaIiEEixEj
	.def	__ZNSt6vectorIiSaIiEEixEj;	.scl	2;	.type	32;	.endef
__ZNSt6vectorIiSaIiEEixEj:
	pushl	%ebp
	movl	%esp, %ebp
	subl	$4, %esp
	movl	%ecx, -4(%ebp)
	movl	-4(%ebp), %eax
	movl	(%eax), %eax
	movl	8(%ebp), %edx
	sall	$2, %edx
	addl	%edx, %eax
	leave
	ret	$4
	.section	.text$_ZNSt6vectorIiSaIiEE5beginEv,"x"
	.linkonce discard
	.align 2
	.globl	__ZNSt6vectorIiSaIiEE5beginEv
	.def	__ZNSt6vectorIiSaIiEE5beginEv;	.scl	2;	.type	32;	.endef
__ZNSt6vectorIiSaIiEE5beginEv:
	pushl	%ebp
	movl	%esp, %ebp
	subl	$56, %esp
	movl	%ecx, -28(%ebp)
	movl	-28(%ebp), %edx
	leal	-12(%ebp), %eax
	movl	%edx, (%esp)
	movl	%eax, %ecx
	call	__ZN9__gnu_cxx17__normal_iteratorIPiSt6vectorIiSaIiEEEC1ERKS1_
	subl	$4, %esp
	movl	-12(%ebp), %eax
	leave
	ret
	.section	.text$_ZNSt6vectorIiSaIiEE3endEv,"x"
	.linkonce discard
	.align 2
	.globl	__ZNSt6vectorIiSaIiEE3endEv
	.def	__ZNSt6vectorIiSaIiEE3endEv;	.scl	2;	.type	32;	.endef
__ZNSt6vectorIiSaIiEE3endEv:
	pushl	%ebp
	movl	%esp, %ebp
	subl	$56, %esp
	movl	%ecx, -28(%ebp)
	movl	-28(%ebp), %eax
	leal	4(%eax), %edx
	leal	-12(%ebp), %eax
	movl	%edx, (%esp)
	movl	%eax, %ecx
	call	__ZN9__gnu_cxx17__normal_iteratorIPiSt6vectorIiSaIiEEEC1ERKS1_
	subl	$4, %esp
	movl	-12(%ebp), %eax
	leave
	ret
	.section	.text$_ZN9__gnu_cxxeqIPiSt6vectorIiSaIiEEEEbRKNS_17__normal_iteratorIT_T0_EESA_,"x"
	.linkonce discard
	.globl	__ZN9__gnu_cxxeqIPiSt6vectorIiSaIiEEEEbRKNS_17__normal_iteratorIT_T0_EESA_
	.def	__ZN9__gnu_cxxeqIPiSt6vectorIiSaIiEEEEbRKNS_17__normal_iteratorIT_T0_EESA_;	.scl	2;	.type	32;	.endef
__ZN9__gnu_cxxeqIPiSt6vectorIiSaIiEEEEbRKNS_17__normal_iteratorIT_T0_EESA_:
	pushl	%ebp
	movl	%esp, %ebp
	pushl	%ebx
	subl	$4, %esp
	movl	8(%ebp), %ecx
	call	__ZNK9__gnu_cxx17__normal_iteratorIPiSt6vectorIiSaIiEEE4baseEv
	movl	(%eax), %ebx
	movl	12(%ebp), %eax
	movl	%eax, %ecx
	call	__ZNK9__gnu_cxx17__normal_iteratorIPiSt6vectorIiSaIiEEE4baseEv
	movl	(%eax), %eax
	cmpl	%eax, %ebx
	sete	%al
	addl	$4, %esp
	popl	%ebx
	popl	%ebp
	ret
	.section	.text$_ZN9__gnu_cxx17__normal_iteratorIPiSt6vectorIiSaIiEEEppEv,"x"
	.linkonce discard
	.align 2
	.globl	__ZN9__gnu_cxx17__normal_iteratorIPiSt6vectorIiSaIiEEEppEv
	.def	__ZN9__gnu_cxx17__normal_iteratorIPiSt6vectorIiSaIiEEEppEv;	.scl	2;	.type	32;	.endef
__ZN9__gnu_cxx17__normal_iteratorIPiSt6vectorIiSaIiEEEppEv:
	pushl	%ebp
	movl	%esp, %ebp
	subl	$4, %esp
	movl	%ecx, -4(%ebp)
	movl	-4(%ebp), %eax
	movl	(%eax), %eax
	leal	4(%eax), %edx
	movl	-4(%ebp), %eax
	movl	%edx, (%eax)
	movl	-4(%ebp), %eax
	leave
	ret
	.section	.text$_ZN9__gnu_cxxneIPiSt6vectorIiSaIiEEEEbRKNS_17__normal_iteratorIT_T0_EESA_,"x"
	.linkonce discard
	.globl	__ZN9__gnu_cxxneIPiSt6vectorIiSaIiEEEEbRKNS_17__normal_iteratorIT_T0_EESA_
	.def	__ZN9__gnu_cxxneIPiSt6vectorIiSaIiEEEEbRKNS_17__normal_iteratorIT_T0_EESA_;	.scl	2;	.type	32;	.endef
__ZN9__gnu_cxxneIPiSt6vectorIiSaIiEEEEbRKNS_17__normal_iteratorIT_T0_EESA_:
	pushl	%ebp
	movl	%esp, %ebp
	pushl	%ebx
	subl	$4, %esp
	movl	8(%ebp), %ecx
	call	__ZNK9__gnu_cxx17__normal_iteratorIPiSt6vectorIiSaIiEEE4baseEv
	movl	(%eax), %ebx
	movl	12(%ebp), %eax
	movl	%eax, %ecx
	call	__ZNK9__gnu_cxx17__normal_iteratorIPiSt6vectorIiSaIiEEE4baseEv
	movl	(%eax), %eax
	cmpl	%eax, %ebx
	setne	%al
	addl	$4, %esp
	popl	%ebx
	popl	%ebp
	ret
	.section	.text$_ZNK9__gnu_cxx17__normal_iteratorIPiSt6vectorIiSaIiEEEdeEv,"x"
	.linkonce discard
	.align 2
	.globl	__ZNK9__gnu_cxx17__normal_iteratorIPiSt6vectorIiSaIiEEEdeEv
	.def	__ZNK9__gnu_cxx17__normal_iteratorIPiSt6vectorIiSaIiEEEdeEv;	.scl	2;	.type	32;	.endef
__ZNK9__gnu_cxx17__normal_iteratorIPiSt6vectorIiSaIiEEEdeEv:
	pushl	%ebp
	movl	%esp, %ebp
	subl	$4, %esp
	movl	%ecx, -4(%ebp)
	movl	-4(%ebp), %eax
	movl	(%eax), %eax
	leave
	ret
	.section	.text$_ZSt7reverseIN9__gnu_cxx17__normal_iteratorIPcNSt7__cxx1112basic_stringIcSt11char_traitsIcESaIcEEEEEEvT_SA_,"x"
	.linkonce discard
	.globl	__ZSt7reverseIN9__gnu_cxx17__normal_iteratorIPcNSt7__cxx1112basic_stringIcSt11char_traitsIcESaIcEEEEEEvT_SA_
	.def	__ZSt7reverseIN9__gnu_cxx17__normal_iteratorIPcNSt7__cxx1112basic_stringIcSt11char_traitsIcESaIcEEEEEEvT_SA_;	.scl	2;	.type	32;	.endef
__ZSt7reverseIN9__gnu_cxx17__normal_iteratorIPcNSt7__cxx1112basic_stringIcSt11char_traitsIcESaIcEEEEEEvT_SA_:
	pushl	%ebp
	movl	%esp, %ebp
	pushl	%ebx
	subl	$36, %esp
	leal	8(%ebp), %eax
	movl	%eax, (%esp)
	call	__ZSt19__iterator_categoryIN9__gnu_cxx17__normal_iteratorIPcNSt7__cxx1112basic_stringIcSt11char_traitsIcESaIcEEEEEENSt15iterator_traitsIT_E17iterator_categoryERKSB_
	movb	%bl, 8(%esp)
	movl	12(%ebp), %eax
	movl	%eax, 4(%esp)
	movl	8(%ebp), %eax
	movl	%eax, (%esp)
	call	__ZSt9__reverseIN9__gnu_cxx17__normal_iteratorIPcNSt7__cxx1112basic_stringIcSt11char_traitsIcESaIcEEEEEEvT_SA_St26random_access_iterator_tag
	nop
	addl	$36, %esp
	popl	%ebx
	popl	%ebp
	ret
	.section	.text$_ZNSaINSt8__detail10_Hash_nodeISt4pairIKiS1_IiiEELb0EEEEC2Ev,"x"
	.linkonce discard
	.align 2
	.globl	__ZNSaINSt8__detail10_Hash_nodeISt4pairIKiS1_IiiEELb0EEEEC2Ev
	.def	__ZNSaINSt8__detail10_Hash_nodeISt4pairIKiS1_IiiEELb0EEEEC2Ev;	.scl	2;	.type	32;	.endef
__ZNSaINSt8__detail10_Hash_nodeISt4pairIKiS1_IiiEELb0EEEEC2Ev:
	pushl	%ebp
	movl	%esp, %ebp
	subl	$24, %esp
	movl	%ecx, -12(%ebp)
	movl	-12(%ebp), %eax
	movl	%eax, %ecx
	call	__ZN9__gnu_cxx13new_allocatorINSt8__detail10_Hash_nodeISt4pairIKiS3_IiiEELb0EEEEC2Ev
	nop
	leave
	ret
	.section	.text$_ZNSaINSt8__detail10_Hash_nodeISt4pairIKiS1_IiiEELb0EEEED2Ev,"x"
	.linkonce discard
	.align 2
	.globl	__ZNSaINSt8__detail10_Hash_nodeISt4pairIKiS1_IiiEELb0EEEED2Ev
	.def	__ZNSaINSt8__detail10_Hash_nodeISt4pairIKiS1_IiiEELb0EEEED2Ev;	.scl	2;	.type	32;	.endef
__ZNSaINSt8__detail10_Hash_nodeISt4pairIKiS1_IiiEELb0EEEED2Ev:
	pushl	%ebp
	movl	%esp, %ebp
	subl	$24, %esp
	movl	%ecx, -12(%ebp)
	movl	-12(%ebp), %eax
	movl	%eax, %ecx
	call	__ZN9__gnu_cxx13new_allocatorINSt8__detail10_Hash_nodeISt4pairIKiS3_IiiEELb0EEEED2Ev
	nop
	leave
	ret
	.section	.text$_ZNSt10_HashtableIiSt4pairIKiS0_IiiEESaIS3_ENSt8__detail10_Select1stESt8equal_toIiESt4hashIiENS5_18_Mod_range_hashingENS5_20_Default_ranged_hashENS5_20_Prime_rehash_policyENS5_17_Hashtable_traitsILb0ELb0ELb1EEEED1Ev,"x"
	.linkonce discard
	.align 2
	.globl	__ZNSt10_HashtableIiSt4pairIKiS0_IiiEESaIS3_ENSt8__detail10_Select1stESt8equal_toIiESt4hashIiENS5_18_Mod_range_hashingENS5_20_Default_ranged_hashENS5_20_Prime_rehash_policyENS5_17_Hashtable_traitsILb0ELb0ELb1EEEED1Ev
	.def	__ZNSt10_HashtableIiSt4pairIKiS0_IiiEESaIS3_ENSt8__detail10_Select1stESt8equal_toIiESt4hashIiENS5_18_Mod_range_hashingENS5_20_Default_ranged_hashENS5_20_Prime_rehash_policyENS5_17_Hashtable_traitsILb0ELb0ELb1EEEED1Ev;	.scl	2;	.type	32;	.endef
__ZNSt10_HashtableIiSt4pairIKiS0_IiiEESaIS3_ENSt8__detail10_Select1stESt8equal_toIiESt4hashIiENS5_18_Mod_range_hashingENS5_20_Default_ranged_hashENS5_20_Prime_rehash_policyENS5_17_Hashtable_traitsILb0ELb0ELb1EEEED1Ev:
	pushl	%ebp
	movl	%esp, %ebp
	subl	$88, %esp
	movl	%ecx, -12(%ebp)
	movl	$___gxx_personality_sj0, -40(%ebp)
	movl	$LLSDA12033, -36(%ebp)
	leal	-64(%ebp), %eax
	movl	%eax, (%esp)
	call	__Unwind_SjLj_Register
	movl	-12(%ebp), %eax
	movl	%eax, %ecx
	call	__ZNSt10_HashtableIiSt4pairIKiS0_IiiEESaIS3_ENSt8__detail10_Select1stESt8equal_toIiESt4hashIiENS5_18_Mod_range_hashingENS5_20_Default_ranged_hashENS5_20_Prime_rehash_policyENS5_17_Hashtable_traitsILb0ELb0ELb1EEEE5clearEv
	movl	-12(%ebp), %eax
	movl	$0, -60(%ebp)
	movl	%eax, %ecx
	call	__ZNSt10_HashtableIiSt4pairIKiS0_IiiEESaIS3_ENSt8__detail10_Select1stESt8equal_toIiESt4hashIiENS5_18_Mod_range_hashingENS5_20_Default_ranged_hashENS5_20_Prime_rehash_policyENS5_17_Hashtable_traitsILb0ELb0ELb1EEEE21_M_deallocate_bucketsEv
	movl	-12(%ebp), %eax
	movl	%eax, %ecx
	call	__ZNSt8__detail16_Hashtable_allocISaINS_10_Hash_nodeISt4pairIKiS2_IiiEELb0EEEEED2Ev
	nop
	leal	-64(%ebp), %eax
	movl	%eax, (%esp)
	call	__Unwind_SjLj_Unregister
	leave
	ret
	.section	.gcc_except_table,"w"
LLSDA12033:
	.byte	0xff
	.byte	0xff
	.byte	0x1
	.uleb128 LLSDACSE12033-LLSDACSB12033
LLSDACSB12033:
LLSDACSE12033:
	.section	.text$_ZNSt10_HashtableIiSt4pairIKiS0_IiiEESaIS3_ENSt8__detail10_Select1stESt8equal_toIiESt4hashIiENS5_18_Mod_range_hashingENS5_20_Default_ranged_hashENS5_20_Prime_rehash_policyENS5_17_Hashtable_traitsILb0ELb0ELb1EEEED1Ev,"x"
	.linkonce discard
	.section	.text$_ZN9__gnu_cxx17__normal_iteratorIPKcNSt7__cxx1112basic_stringIcSt11char_traitsIcESaIcEEEEC1IPcEERKNS0_IT_NS_11__enable_ifIXsrSt10__are_sameISC_SB_E7__valueES8_E6__typeEEE,"x"
	.linkonce discard
	.align 2
	.globl	__ZN9__gnu_cxx17__normal_iteratorIPKcNSt7__cxx1112basic_stringIcSt11char_traitsIcESaIcEEEEC1IPcEERKNS0_IT_NS_11__enable_ifIXsrSt10__are_sameISC_SB_E7__valueES8_E6__typeEEE
	.def	__ZN9__gnu_cxx17__normal_iteratorIPKcNSt7__cxx1112basic_stringIcSt11char_traitsIcESaIcEEEEC1IPcEERKNS0_IT_NS_11__enable_ifIXsrSt10__are_sameISC_SB_E7__valueES8_E6__typeEEE;	.scl	2;	.type	32;	.endef
__ZN9__gnu_cxx17__normal_iteratorIPKcNSt7__cxx1112basic_stringIcSt11char_traitsIcESaIcEEEEC1IPcEERKNS0_IT_NS_11__enable_ifIXsrSt10__are_sameISC_SB_E7__valueES8_E6__typeEEE:
	pushl	%ebp
	movl	%esp, %ebp
	subl	$24, %esp
	movl	%ecx, -12(%ebp)
	movl	8(%ebp), %ecx
	call	__ZNK9__gnu_cxx17__normal_iteratorIPcNSt7__cxx1112basic_stringIcSt11char_traitsIcESaIcEEEE4baseEv
	movl	(%eax), %edx
	movl	-12(%ebp), %eax
	movl	%edx, (%eax)
	nop
	leave
	ret	$4
	.section	.text$_ZSt5countIN9__gnu_cxx17__normal_iteratorIPcNSt7__cxx1112basic_stringIcSt11char_traitsIcESaIcEEEEEcENSt15iterator_traitsIT_E15difference_typeESB_SB_RKT0_,"x"
	.linkonce discard
	.globl	__ZSt5countIN9__gnu_cxx17__normal_iteratorIPcNSt7__cxx1112basic_stringIcSt11char_traitsIcESaIcEEEEEcENSt15iterator_traitsIT_E15difference_typeESB_SB_RKT0_
	.def	__ZSt5countIN9__gnu_cxx17__normal_iteratorIPcNSt7__cxx1112basic_stringIcSt11char_traitsIcESaIcEEEEEcENSt15iterator_traitsIT_E15difference_typeESB_SB_RKT0_;	.scl	2;	.type	32;	.endef
__ZSt5countIN9__gnu_cxx17__normal_iteratorIPcNSt7__cxx1112basic_stringIcSt11char_traitsIcESaIcEEEEEcENSt15iterator_traitsIT_E15difference_typeESB_SB_RKT0_:
	pushl	%ebp
	movl	%esp, %ebp
	subl	$24, %esp
	movl	16(%ebp), %eax
	movl	%eax, (%esp)
	call	__ZN9__gnu_cxx5__ops17__iter_equals_valIKcEENS0_16_Iter_equals_valIT_EERS4_
	movl	%eax, 8(%esp)
	movl	12(%ebp), %eax
	movl	%eax, 4(%esp)
	movl	8(%ebp), %eax
	movl	%eax, (%esp)
	call	__ZSt10__count_ifIN9__gnu_cxx17__normal_iteratorIPcNSt7__cxx1112basic_stringIcSt11char_traitsIcESaIcEEEEENS0_5__ops16_Iter_equals_valIKcEEENSt15iterator_traitsIT_E15difference_typeESF_SF_T0_
	leave
	ret
	.section	.text$_ZNSt13unordered_mapIiSt4pairIiiESt4hashIiESt8equal_toIiESaIS0_IKiS1_EEEixERS6_,"x"
	.linkonce discard
	.align 2
	.globl	__ZNSt13unordered_mapIiSt4pairIiiESt4hashIiESt8equal_toIiESaIS0_IKiS1_EEEixERS6_
	.def	__ZNSt13unordered_mapIiSt4pairIiiESt4hashIiESt8equal_toIiESaIS0_IKiS1_EEEixERS6_;	.scl	2;	.type	32;	.endef
__ZNSt13unordered_mapIiSt4pairIiiESt4hashIiESt8equal_toIiESaIS0_IKiS1_EEEixERS6_:
	pushl	%ebp
	movl	%esp, %ebp
	subl	$40, %esp
	movl	%ecx, -12(%ebp)
	movl	-12(%ebp), %eax
	movl	8(%ebp), %edx
	movl	%edx, (%esp)
	movl	%eax, %ecx
	call	__ZNSt8__detail9_Map_baseIiSt4pairIKiS1_IiiEESaIS4_ENS_10_Select1stESt8equal_toIiESt4hashIiENS_18_Mod_range_hashingENS_20_Default_ranged_hashENS_20_Prime_rehash_policyENS_17_Hashtable_traitsILb0ELb0ELb1EEELb1EEixERS2_
	subl	$4, %esp
	leave
	ret	$4
	.section	.text$_ZSt7forwardIiEOT_RNSt16remove_referenceIS0_E4typeE,"x"
	.linkonce discard
	.globl	__ZSt7forwardIiEOT_RNSt16remove_referenceIS0_E4typeE
	.def	__ZSt7forwardIiEOT_RNSt16remove_referenceIS0_E4typeE;	.scl	2;	.type	32;	.endef
__ZSt7forwardIiEOT_RNSt16remove_referenceIS0_E4typeE:
	pushl	%ebp
	movl	%esp, %ebp
	movl	8(%ebp), %eax
	popl	%ebp
	ret
	.section	.text$_ZNSt4pairIiiEaSEOS0_,"x"
	.linkonce discard
	.align 2
	.globl	__ZNSt4pairIiiEaSEOS0_
	.def	__ZNSt4pairIiiEaSEOS0_;	.scl	2;	.type	32;	.endef
__ZNSt4pairIiiEaSEOS0_:
	pushl	%ebp
	movl	%esp, %ebp
	subl	$8, %esp
	movl	%ecx, -4(%ebp)
	movl	8(%ebp), %eax
	movl	%eax, (%esp)
	call	__ZSt7forwardIiEOT_RNSt16remove_referenceIS0_E4typeE
	movl	(%eax), %edx
	movl	-4(%ebp), %eax
	movl	%edx, (%eax)
	movl	8(%ebp), %eax
	addl	$4, %eax
	movl	%eax, (%esp)
	call	__ZSt7forwardIiEOT_RNSt16remove_referenceIS0_E4typeE
	movl	(%eax), %edx
	movl	-4(%ebp), %eax
	movl	%edx, 4(%eax)
	movl	-4(%ebp), %eax
	leave
	ret	$4
	.section	.text$_ZNSt7__cxx1112basic_stringIcSt11char_traitsIcESaIcEEC1IPcvEET_S7_RKS3_,"x"
	.linkonce discard
	.align 2
	.globl	__ZNSt7__cxx1112basic_stringIcSt11char_traitsIcESaIcEEC1IPcvEET_S7_RKS3_
	.def	__ZNSt7__cxx1112basic_stringIcSt11char_traitsIcESaIcEEC1IPcvEET_S7_RKS3_;	.scl	2;	.type	32;	.endef
__ZNSt7__cxx1112basic_stringIcSt11char_traitsIcESaIcEEC1IPcvEET_S7_RKS3_:
	pushl	%ebp
	movl	%esp, %ebp
	pushl	%edi
	pushl	%esi
	pushl	%ebx
	subl	$92, %esp
	movl	%ecx, -28(%ebp)
	movl	$___gxx_personality_sj0, -56(%ebp)
	movl	$LLSDA12049, -52(%ebp)
	leal	-48(%ebp), %eax
	leal	-24(%ebp), %ebx
	movl	%ebx, (%eax)
	movl	$L138, %edx
	movl	%edx, 4(%eax)
	movl	%esp, 8(%eax)
	leal	-80(%ebp), %eax
	movl	%eax, (%esp)
	call	__Unwind_SjLj_Register
	movl	-28(%ebp), %eax
	movl	$-1, -76(%ebp)
	movl	%eax, %ecx
	call	__ZNSt7__cxx1112basic_stringIcSt11char_traitsIcESaIcEE13_M_local_dataEv
	movl	%eax, %ecx
	movl	-28(%ebp), %eax
	movl	16(%ebp), %edx
	movl	%edx, 4(%esp)
	movl	%ecx, (%esp)
	movl	%eax, %ecx
	call	__ZNSt7__cxx1112basic_stringIcSt11char_traitsIcESaIcEE12_Alloc_hiderC1EPcRKS3_
	subl	$8, %esp
	movl	-28(%ebp), %eax
	movl	12(%ebp), %edx
	movl	%edx, 4(%esp)
	movl	8(%ebp), %edx
	movl	%edx, (%esp)
	movl	$1, -76(%ebp)
	movl	%eax, %ecx
	call	__ZNSt7__cxx1112basic_stringIcSt11char_traitsIcESaIcEE12_M_constructIPcEEvT_S7_
	subl	$8, %esp
	jmp	L140
L138:
	leal	24(%ebp), %ebp
	movl	-72(%ebp), %eax
	movl	%eax, -84(%ebp)
	movl	-28(%ebp), %eax
	movl	%eax, %ecx
	call	__ZNSt7__cxx1112basic_stringIcSt11char_traitsIcESaIcEE12_Alloc_hiderD1Ev
	movl	-84(%ebp), %eax
	movl	%eax, (%esp)
	movl	$-1, -76(%ebp)
	call	__Unwind_SjLj_Resume
L140:
	leal	-80(%ebp), %eax
	movl	%eax, (%esp)
	call	__Unwind_SjLj_Unregister
	leal	-12(%ebp), %esp
	popl	%ebx
	popl	%esi
	popl	%edi
	popl	%ebp
	ret	$12
	.section	.gcc_except_table,"w"
LLSDA12049:
	.byte	0xff
	.byte	0xff
	.byte	0x1
	.uleb128 LLSDACSE12049-LLSDACSB12049
LLSDACSB12049:
	.uleb128 0
	.uleb128 0
LLSDACSE12049:
	.section	.text$_ZNSt7__cxx1112basic_stringIcSt11char_traitsIcESaIcEEC1IPcvEET_S7_RKS3_,"x"
	.linkonce discard
	.section	.text$_ZN9__gnu_cxx13new_allocatorIiEC2Ev,"x"
	.linkonce discard
	.align 2
	.globl	__ZN9__gnu_cxx13new_allocatorIiEC2Ev
	.def	__ZN9__gnu_cxx13new_allocatorIiEC2Ev;	.scl	2;	.type	32;	.endef
__ZN9__gnu_cxx13new_allocatorIiEC2Ev:
	pushl	%ebp
	movl	%esp, %ebp
	subl	$4, %esp
	movl	%ecx, -4(%ebp)
	nop
	leave
	ret
	.section	.text$_ZN9__gnu_cxx13new_allocatorIiED2Ev,"x"
	.linkonce discard
	.align 2
	.globl	__ZN9__gnu_cxx13new_allocatorIiED2Ev
	.def	__ZN9__gnu_cxx13new_allocatorIiED2Ev;	.scl	2;	.type	32;	.endef
__ZN9__gnu_cxx13new_allocatorIiED2Ev:
	pushl	%ebp
	movl	%esp, %ebp
	subl	$4, %esp
	movl	%ecx, -4(%ebp)
	nop
	leave
	ret
	.section	.text$_ZNSt12_Vector_baseIiSaIiEE12_Vector_implD1Ev,"x"
	.linkonce discard
	.align 2
	.globl	__ZNSt12_Vector_baseIiSaIiEE12_Vector_implD1Ev
	.def	__ZNSt12_Vector_baseIiSaIiEE12_Vector_implD1Ev;	.scl	2;	.type	32;	.endef
__ZNSt12_Vector_baseIiSaIiEE12_Vector_implD1Ev:
	pushl	%ebp
	movl	%esp, %ebp
	subl	$24, %esp
	movl	%ecx, -12(%ebp)
	movl	-12(%ebp), %eax
	movl	%eax, %ecx
	call	__ZNSaIiED2Ev
	nop
	leave
	ret
	.section	.text$_ZNSt12_Vector_baseIiSaIiEEC2EjRKS0_,"x"
	.linkonce discard
	.align 2
	.globl	__ZNSt12_Vector_baseIiSaIiEEC2EjRKS0_
	.def	__ZNSt12_Vector_baseIiSaIiEEC2EjRKS0_;	.scl	2;	.type	32;	.endef
__ZNSt12_Vector_baseIiSaIiEEC2EjRKS0_:
	pushl	%ebp
	movl	%esp, %ebp
	pushl	%edi
	pushl	%esi
	pushl	%ebx
	subl	$92, %esp
	movl	%ecx, -28(%ebp)
	movl	$___gxx_personality_sj0, -56(%ebp)
	movl	$LLSDA12270, -52(%ebp)
	leal	-48(%ebp), %eax
	leal	-24(%ebp), %ebx
	movl	%ebx, (%eax)
	movl	$L146, %edx
	movl	%edx, 4(%eax)
	movl	%esp, 8(%eax)
	leal	-80(%ebp), %eax
	movl	%eax, (%esp)
	call	__Unwind_SjLj_Register
	movl	-28(%ebp), %eax
	movl	12(%ebp), %edx
	movl	%edx, (%esp)
	movl	%eax, %ecx
	call	__ZNSt12_Vector_baseIiSaIiEE12_Vector_implC1ERKS0_
	subl	$4, %esp
	movl	-28(%ebp), %eax
	movl	8(%ebp), %edx
	movl	%edx, (%esp)
	movl	$1, -76(%ebp)
	movl	%eax, %ecx
	call	__ZNSt12_Vector_baseIiSaIiEE17_M_create_storageEj
	subl	$4, %esp
	jmp	L148
L146:
	leal	24(%ebp), %ebp
	movl	-72(%ebp), %eax
	movl	%eax, -84(%ebp)
	movl	-28(%ebp), %eax
	movl	%eax, %ecx
	call	__ZNSt12_Vector_baseIiSaIiEE12_Vector_implD1Ev
	movl	-84(%ebp), %eax
	movl	%eax, (%esp)
	movl	$-1, -76(%ebp)
	call	__Unwind_SjLj_Resume
L148:
	leal	-80(%ebp), %eax
	movl	%eax, (%esp)
	call	__Unwind_SjLj_Unregister
	leal	-12(%ebp), %esp
	popl	%ebx
	popl	%esi
	popl	%edi
	popl	%ebp
	ret	$8
	.section	.gcc_except_table,"w"
LLSDA12270:
	.byte	0xff
	.byte	0xff
	.byte	0x1
	.uleb128 LLSDACSE12270-LLSDACSB12270
LLSDACSB12270:
	.uleb128 0
	.uleb128 0
LLSDACSE12270:
	.section	.text$_ZNSt12_Vector_baseIiSaIiEEC2EjRKS0_,"x"
	.linkonce discard
	.section	.text$_ZNSt12_Vector_baseIiSaIiEED2Ev,"x"
	.linkonce discard
	.align 2
	.globl	__ZNSt12_Vector_baseIiSaIiEED2Ev
	.def	__ZNSt12_Vector_baseIiSaIiEED2Ev;	.scl	2;	.type	32;	.endef
__ZNSt12_Vector_baseIiSaIiEED2Ev:
	pushl	%ebp
	movl	%esp, %ebp
	subl	$88, %esp
	movl	%ecx, -12(%ebp)
	movl	$___gxx_personality_sj0, -40(%ebp)
	movl	$LLSDA12273, -36(%ebp)
	leal	-64(%ebp), %eax
	movl	%eax, (%esp)
	call	__Unwind_SjLj_Register
	movl	-12(%ebp), %eax
	movl	8(%eax), %eax
	movl	%eax, %edx
	movl	-12(%ebp), %eax
	movl	(%eax), %eax
	subl	%eax, %edx
	movl	%edx, %eax
	sarl	$2, %eax
	movl	%eax, %ecx
	movl	-12(%ebp), %eax
	movl	(%eax), %edx
	movl	-12(%ebp), %eax
	movl	%ecx, 4(%esp)
	movl	%edx, (%esp)
	movl	$0, -60(%ebp)
	movl	%eax, %ecx
	call	__ZNSt12_Vector_baseIiSaIiEE13_M_deallocateEPij
	subl	$8, %esp
	movl	-12(%ebp), %eax
	movl	%eax, %ecx
	call	__ZNSt12_Vector_baseIiSaIiEE12_Vector_implD1Ev
	nop
	leal	-64(%ebp), %eax
	movl	%eax, (%esp)
	call	__Unwind_SjLj_Unregister
	leave
	ret
	.section	.gcc_except_table,"w"
LLSDA12273:
	.byte	0xff
	.byte	0xff
	.byte	0x1
	.uleb128 LLSDACSE12273-LLSDACSB12273
LLSDACSB12273:
LLSDACSE12273:
	.section	.text$_ZNSt12_Vector_baseIiSaIiEED2Ev,"x"
	.linkonce discard
	.section	.text$_ZNSt6vectorIiSaIiEE21_M_default_initializeEj,"x"
	.linkonce discard
	.align 2
	.globl	__ZNSt6vectorIiSaIiEE21_M_default_initializeEj
	.def	__ZNSt6vectorIiSaIiEE21_M_default_initializeEj;	.scl	2;	.type	32;	.endef
__ZNSt6vectorIiSaIiEE21_M_default_initializeEj:
	pushl	%ebp
	movl	%esp, %ebp
	subl	$40, %esp
	movl	%ecx, -12(%ebp)
	movl	-12(%ebp), %eax
	movl	%eax, %ecx
	call	__ZNSt12_Vector_baseIiSaIiEE19_M_get_Tp_allocatorEv
	movl	%eax, %edx
	movl	-12(%ebp), %eax
	movl	(%eax), %eax
	movl	%edx, 8(%esp)
	movl	8(%ebp), %edx
	movl	%edx, 4(%esp)
	movl	%eax, (%esp)
	call	__ZSt27__uninitialized_default_n_aIPijiET_S1_T0_RSaIT1_E
	movl	%eax, %edx
	movl	-12(%ebp), %eax
	movl	%edx, 4(%eax)
	nop
	leave
	ret	$4
	.section	.text$_ZNSt12_Vector_baseIiSaIiEE19_M_get_Tp_allocatorEv,"x"
	.linkonce discard
	.align 2
	.globl	__ZNSt12_Vector_baseIiSaIiEE19_M_get_Tp_allocatorEv
	.def	__ZNSt12_Vector_baseIiSaIiEE19_M_get_Tp_allocatorEv;	.scl	2;	.type	32;	.endef
__ZNSt12_Vector_baseIiSaIiEE19_M_get_Tp_allocatorEv:
	pushl	%ebp
	movl	%esp, %ebp
	subl	$4, %esp
	movl	%ecx, -4(%ebp)
	movl	-4(%ebp), %eax
	leave
	ret
	.section	.text$_ZSt8_DestroyIPiiEvT_S1_RSaIT0_E,"x"
	.linkonce discard
	.globl	__ZSt8_DestroyIPiiEvT_S1_RSaIT0_E
	.def	__ZSt8_DestroyIPiiEvT_S1_RSaIT0_E;	.scl	2;	.type	32;	.endef
__ZSt8_DestroyIPiiEvT_S1_RSaIT0_E:
	pushl	%ebp
	movl	%esp, %ebp
	subl	$24, %esp
	movl	12(%ebp), %eax
	movl	%eax, 4(%esp)
	movl	8(%ebp), %eax
	movl	%eax, (%esp)
	call	__ZSt8_DestroyIPiEvT_S1_
	nop
	leave
	ret
	.section	.text$_ZN9__gnu_cxx17__normal_iteratorIPiSt6vectorIiSaIiEEEC1ERKS1_,"x"
	.linkonce discard
	.align 2
	.globl	__ZN9__gnu_cxx17__normal_iteratorIPiSt6vectorIiSaIiEEEC1ERKS1_
	.def	__ZN9__gnu_cxx17__normal_iteratorIPiSt6vectorIiSaIiEEEC1ERKS1_;	.scl	2;	.type	32;	.endef
__ZN9__gnu_cxx17__normal_iteratorIPiSt6vectorIiSaIiEEEC1ERKS1_:
	pushl	%ebp
	movl	%esp, %ebp
	subl	$4, %esp
	movl	%ecx, -4(%ebp)
	movl	8(%ebp), %eax
	movl	(%eax), %edx
	movl	-4(%ebp), %eax
	movl	%edx, (%eax)
	nop
	leave
	ret	$4
	.section	.text$_ZNK9__gnu_cxx17__normal_iteratorIPiSt6vectorIiSaIiEEE4baseEv,"x"
	.linkonce discard
	.align 2
	.globl	__ZNK9__gnu_cxx17__normal_iteratorIPiSt6vectorIiSaIiEEE4baseEv
	.def	__ZNK9__gnu_cxx17__normal_iteratorIPiSt6vectorIiSaIiEEE4baseEv;	.scl	2;	.type	32;	.endef
__ZNK9__gnu_cxx17__normal_iteratorIPiSt6vectorIiSaIiEEE4baseEv:
	pushl	%ebp
	movl	%esp, %ebp
	subl	$4, %esp
	movl	%ecx, -4(%ebp)
	movl	-4(%ebp), %eax
	leave
	ret
	.section	.text$_ZSt19__iterator_categoryIN9__gnu_cxx17__normal_iteratorIPcNSt7__cxx1112basic_stringIcSt11char_traitsIcESaIcEEEEEENSt15iterator_traitsIT_E17iterator_categoryERKSB_,"x"
	.linkonce discard
	.globl	__ZSt19__iterator_categoryIN9__gnu_cxx17__normal_iteratorIPcNSt7__cxx1112basic_stringIcSt11char_traitsIcESaIcEEEEEENSt15iterator_traitsIT_E17iterator_categoryERKSB_
	.def	__ZSt19__iterator_categoryIN9__gnu_cxx17__normal_iteratorIPcNSt7__cxx1112basic_stringIcSt11char_traitsIcESaIcEEEEEENSt15iterator_traitsIT_E17iterator_categoryERKSB_;	.scl	2;	.type	32;	.endef
__ZSt19__iterator_categoryIN9__gnu_cxx17__normal_iteratorIPcNSt7__cxx1112basic_stringIcSt11char_traitsIcESaIcEEEEEENSt15iterator_traitsIT_E17iterator_categoryERKSB_:
	pushl	%ebp
	movl	%esp, %ebp
	popl	%ebp
	ret
	.section	.text$_ZSt9__reverseIN9__gnu_cxx17__normal_iteratorIPcNSt7__cxx1112basic_stringIcSt11char_traitsIcESaIcEEEEEEvT_SA_St26random_access_iterator_tag,"x"
	.linkonce discard
	.globl	__ZSt9__reverseIN9__gnu_cxx17__normal_iteratorIPcNSt7__cxx1112basic_stringIcSt11char_traitsIcESaIcEEEEEEvT_SA_St26random_access_iterator_tag
	.def	__ZSt9__reverseIN9__gnu_cxx17__normal_iteratorIPcNSt7__cxx1112basic_stringIcSt11char_traitsIcESaIcEEEEEEvT_SA_St26random_access_iterator_tag;	.scl	2;	.type	32;	.endef
__ZSt9__reverseIN9__gnu_cxx17__normal_iteratorIPcNSt7__cxx1112basic_stringIcSt11char_traitsIcESaIcEEEEEEvT_SA_St26random_access_iterator_tag:
	pushl	%ebp
	movl	%esp, %ebp
	subl	$24, %esp
	leal	12(%ebp), %eax
	movl	%eax, 4(%esp)
	leal	8(%ebp), %eax
	movl	%eax, (%esp)
	call	__ZN9__gnu_cxxeqIPcNSt7__cxx1112basic_stringIcSt11char_traitsIcESaIcEEEEEbRKNS_17__normal_iteratorIT_T0_EESD_
	testb	%al, %al
	jne	L163
	leal	12(%ebp), %eax
	movl	%eax, %ecx
	call	__ZN9__gnu_cxx17__normal_iteratorIPcNSt7__cxx1112basic_stringIcSt11char_traitsIcESaIcEEEEmmEv
L162:
	leal	12(%ebp), %eax
	movl	%eax, 4(%esp)
	leal	8(%ebp), %eax
	movl	%eax, (%esp)
	call	__ZN9__gnu_cxxltIPcNSt7__cxx1112basic_stringIcSt11char_traitsIcESaIcEEEEEbRKNS_17__normal_iteratorIT_T0_EESD_
	testb	%al, %al
	je	L159
	movl	12(%ebp), %eax
	movl	%eax, 4(%esp)
	movl	8(%ebp), %eax
	movl	%eax, (%esp)
	call	__ZSt9iter_swapIN9__gnu_cxx17__normal_iteratorIPcNSt7__cxx1112basic_stringIcSt11char_traitsIcESaIcEEEEES9_EvT_T0_
	leal	8(%ebp), %ecx
	call	__ZN9__gnu_cxx17__normal_iteratorIPcNSt7__cxx1112basic_stringIcSt11char_traitsIcESaIcEEEEppEv
	leal	12(%ebp), %eax
	movl	%eax, %ecx
	call	__ZN9__gnu_cxx17__normal_iteratorIPcNSt7__cxx1112basic_stringIcSt11char_traitsIcESaIcEEEEmmEv
	jmp	L162
L163:
	nop
L159:
	leave
	ret
	.section	.text$_ZN9__gnu_cxx13new_allocatorINSt8__detail10_Hash_nodeISt4pairIKiS3_IiiEELb0EEEEC2Ev,"x"
	.linkonce discard
	.align 2
	.globl	__ZN9__gnu_cxx13new_allocatorINSt8__detail10_Hash_nodeISt4pairIKiS3_IiiEELb0EEEEC2Ev
	.def	__ZN9__gnu_cxx13new_allocatorINSt8__detail10_Hash_nodeISt4pairIKiS3_IiiEELb0EEEEC2Ev;	.scl	2;	.type	32;	.endef
__ZN9__gnu_cxx13new_allocatorINSt8__detail10_Hash_nodeISt4pairIKiS3_IiiEELb0EEEEC2Ev:
	pushl	%ebp
	movl	%esp, %ebp
	subl	$4, %esp
	movl	%ecx, -4(%ebp)
	nop
	leave
	ret
	.section	.text$_ZN9__gnu_cxx13new_allocatorINSt8__detail10_Hash_nodeISt4pairIKiS3_IiiEELb0EEEED2Ev,"x"
	.linkonce discard
	.align 2
	.globl	__ZN9__gnu_cxx13new_allocatorINSt8__detail10_Hash_nodeISt4pairIKiS3_IiiEELb0EEEED2Ev
	.def	__ZN9__gnu_cxx13new_allocatorINSt8__detail10_Hash_nodeISt4pairIKiS3_IiiEELb0EEEED2Ev;	.scl	2;	.type	32;	.endef
__ZN9__gnu_cxx13new_allocatorINSt8__detail10_Hash_nodeISt4pairIKiS3_IiiEELb0EEEED2Ev:
	pushl	%ebp
	movl	%esp, %ebp
	subl	$4, %esp
	movl	%ecx, -4(%ebp)
	nop
	leave
	ret
	.section	.text$_ZNSt10_HashtableIiSt4pairIKiS0_IiiEESaIS3_ENSt8__detail10_Select1stESt8equal_toIiESt4hashIiENS5_18_Mod_range_hashingENS5_20_Default_ranged_hashENS5_20_Prime_rehash_policyENS5_17_Hashtable_traitsILb0ELb0ELb1EEEE5clearEv,"x"
	.linkonce discard
	.align 2
	.globl	__ZNSt10_HashtableIiSt4pairIKiS0_IiiEESaIS3_ENSt8__detail10_Select1stESt8equal_toIiESt4hashIiENS5_18_Mod_range_hashingENS5_20_Default_ranged_hashENS5_20_Prime_rehash_policyENS5_17_Hashtable_traitsILb0ELb0ELb1EEEE5clearEv
	.def	__ZNSt10_HashtableIiSt4pairIKiS0_IiiEESaIS3_ENSt8__detail10_Select1stESt8equal_toIiESt4hashIiENS5_18_Mod_range_hashingENS5_20_Default_ranged_hashENS5_20_Prime_rehash_policyENS5_17_Hashtable_traitsILb0ELb0ELb1EEEE5clearEv;	.scl	2;	.type	32;	.endef
__ZNSt10_HashtableIiSt4pairIKiS0_IiiEESaIS3_ENSt8__detail10_Select1stESt8equal_toIiESt4hashIiENS5_18_Mod_range_hashingENS5_20_Default_ranged_hashENS5_20_Prime_rehash_policyENS5_17_Hashtable_traitsILb0ELb0ELb1EEEE5clearEv:
	pushl	%ebp
	movl	%esp, %ebp
	subl	$88, %esp
	movl	%ecx, -12(%ebp)
	movl	$___gxx_personality_sj0, -40(%ebp)
	movl	$LLSDA12293, -36(%ebp)
	leal	-64(%ebp), %eax
	movl	%eax, (%esp)
	call	__Unwind_SjLj_Register
	movl	-12(%ebp), %eax
	movl	%eax, %ecx
	call	__ZNKSt10_HashtableIiSt4pairIKiS0_IiiEESaIS3_ENSt8__detail10_Select1stESt8equal_toIiESt4hashIiENS5_18_Mod_range_hashingENS5_20_Default_ranged_hashENS5_20_Prime_rehash_policyENS5_17_Hashtable_traitsILb0ELb0ELb1EEEE8_M_beginEv
	movl	%eax, %edx
	movl	-12(%ebp), %eax
	movl	%edx, (%esp)
	movl	$0, -60(%ebp)
	movl	%eax, %ecx
	call	__ZNSt8__detail16_Hashtable_allocISaINS_10_Hash_nodeISt4pairIKiS2_IiiEELb0EEEEE19_M_deallocate_nodesEPS6_
	subl	$4, %esp
	movl	-12(%ebp), %eax
	movl	4(%eax), %eax
	leal	0(,%eax,4), %edx
	movl	-12(%ebp), %eax
	movl	(%eax), %eax
	movl	%edx, 8(%esp)
	movl	$0, 4(%esp)
	movl	%eax, (%esp)
	call	_memset
	movl	-12(%ebp), %eax
	movl	$0, 12(%eax)
	movl	-12(%ebp), %eax
	movl	$0, 8(%eax)
	nop
	leal	-64(%ebp), %eax
	movl	%eax, (%esp)
	call	__Unwind_SjLj_Unregister
	leave
	ret
	.section	.gcc_except_table,"w"
LLSDA12293:
	.byte	0xff
	.byte	0xff
	.byte	0x1
	.uleb128 LLSDACSE12293-LLSDACSB12293
LLSDACSB12293:
LLSDACSE12293:
	.section	.text$_ZNSt10_HashtableIiSt4pairIKiS0_IiiEESaIS3_ENSt8__detail10_Select1stESt8equal_toIiESt4hashIiENS5_18_Mod_range_hashingENS5_20_Default_ranged_hashENS5_20_Prime_rehash_policyENS5_17_Hashtable_traitsILb0ELb0ELb1EEEE5clearEv,"x"
	.linkonce discard
	.section	.text$_ZNSt10_HashtableIiSt4pairIKiS0_IiiEESaIS3_ENSt8__detail10_Select1stESt8equal_toIiESt4hashIiENS5_18_Mod_range_hashingENS5_20_Default_ranged_hashENS5_20_Prime_rehash_policyENS5_17_Hashtable_traitsILb0ELb0ELb1EEEE21_M_deallocate_bucketsEv,"x"
	.linkonce discard
	.align 2
	.globl	__ZNSt10_HashtableIiSt4pairIKiS0_IiiEESaIS3_ENSt8__detail10_Select1stESt8equal_toIiESt4hashIiENS5_18_Mod_range_hashingENS5_20_Default_ranged_hashENS5_20_Prime_rehash_policyENS5_17_Hashtable_traitsILb0ELb0ELb1EEEE21_M_deallocate_bucketsEv
	.def	__ZNSt10_HashtableIiSt4pairIKiS0_IiiEESaIS3_ENSt8__detail10_Select1stESt8equal_toIiESt4hashIiENS5_18_Mod_range_hashingENS5_20_Default_ranged_hashENS5_20_Prime_rehash_policyENS5_17_Hashtable_traitsILb0ELb0ELb1EEEE21_M_deallocate_bucketsEv;	.scl	2;	.type	32;	.endef
__ZNSt10_HashtableIiSt4pairIKiS0_IiiEESaIS3_ENSt8__detail10_Select1stESt8equal_toIiESt4hashIiENS5_18_Mod_range_hashingENS5_20_Default_ranged_hashENS5_20_Prime_rehash_policyENS5_17_Hashtable_traitsILb0ELb0ELb1EEEE21_M_deallocate_bucketsEv:
	pushl	%ebp
	movl	%esp, %ebp
	subl	$40, %esp
	movl	%ecx, -12(%ebp)
	movl	-12(%ebp), %eax
	movl	4(%eax), %ecx
	movl	-12(%ebp), %eax
	movl	(%eax), %edx
	movl	-12(%ebp), %eax
	movl	%ecx, 4(%esp)
	movl	%edx, (%esp)
	movl	%eax, %ecx
	call	__ZNSt10_HashtableIiSt4pairIKiS0_IiiEESaIS3_ENSt8__detail10_Select1stESt8equal_toIiESt4hashIiENS5_18_Mod_range_hashingENS5_20_Default_ranged_hashENS5_20_Prime_rehash_policyENS5_17_Hashtable_traitsILb0ELb0ELb1EEEE21_M_deallocate_bucketsEPPNS5_15_Hash_node_baseEj
	subl	$8, %esp
	nop
	leave
	ret
	.section	.text$_ZNK9__gnu_cxx17__normal_iteratorIPcNSt7__cxx1112basic_stringIcSt11char_traitsIcESaIcEEEE4baseEv,"x"
	.linkonce discard
	.align 2
	.globl	__ZNK9__gnu_cxx17__normal_iteratorIPcNSt7__cxx1112basic_stringIcSt11char_traitsIcESaIcEEEE4baseEv
	.def	__ZNK9__gnu_cxx17__normal_iteratorIPcNSt7__cxx1112basic_stringIcSt11char_traitsIcESaIcEEEE4baseEv;	.scl	2;	.type	32;	.endef
__ZNK9__gnu_cxx17__normal_iteratorIPcNSt7__cxx1112basic_stringIcSt11char_traitsIcESaIcEEEE4baseEv:
	pushl	%ebp
	movl	%esp, %ebp
	subl	$4, %esp
	movl	%ecx, -4(%ebp)
	movl	-4(%ebp), %eax
	leave
	ret
	.section	.text$_ZN9__gnu_cxx5__ops17__iter_equals_valIKcEENS0_16_Iter_equals_valIT_EERS4_,"x"
	.linkonce discard
	.globl	__ZN9__gnu_cxx5__ops17__iter_equals_valIKcEENS0_16_Iter_equals_valIT_EERS4_
	.def	__ZN9__gnu_cxx5__ops17__iter_equals_valIKcEENS0_16_Iter_equals_valIT_EERS4_;	.scl	2;	.type	32;	.endef
__ZN9__gnu_cxx5__ops17__iter_equals_valIKcEENS0_16_Iter_equals_valIT_EERS4_:
	pushl	%ebp
	movl	%esp, %ebp
	subl	$40, %esp
	leal	-12(%ebp), %eax
	movl	8(%ebp), %edx
	movl	%edx, (%esp)
	movl	%eax, %ecx
	call	__ZN9__gnu_cxx5__ops16_Iter_equals_valIKcEC1ERS2_
	subl	$4, %esp
	movl	-12(%ebp), %eax
	leave
	ret
	.section	.text$_ZSt10__count_ifIN9__gnu_cxx17__normal_iteratorIPcNSt7__cxx1112basic_stringIcSt11char_traitsIcESaIcEEEEENS0_5__ops16_Iter_equals_valIKcEEENSt15iterator_traitsIT_E15difference_typeESF_SF_T0_,"x"
	.linkonce discard
	.globl	__ZSt10__count_ifIN9__gnu_cxx17__normal_iteratorIPcNSt7__cxx1112basic_stringIcSt11char_traitsIcESaIcEEEEENS0_5__ops16_Iter_equals_valIKcEEENSt15iterator_traitsIT_E15difference_typeESF_SF_T0_
	.def	__ZSt10__count_ifIN9__gnu_cxx17__normal_iteratorIPcNSt7__cxx1112basic_stringIcSt11char_traitsIcESaIcEEEEENS0_5__ops16_Iter_equals_valIKcEEENSt15iterator_traitsIT_E15difference_typeESF_SF_T0_;	.scl	2;	.type	32;	.endef
__ZSt10__count_ifIN9__gnu_cxx17__normal_iteratorIPcNSt7__cxx1112basic_stringIcSt11char_traitsIcESaIcEEEEENS0_5__ops16_Iter_equals_valIKcEEENSt15iterator_traitsIT_E15difference_typeESF_SF_T0_:
	pushl	%ebp
	movl	%esp, %ebp
	subl	$40, %esp
	movl	$0, -12(%ebp)
L175:
	leal	12(%ebp), %eax
	movl	%eax, 4(%esp)
	leal	8(%ebp), %eax
	movl	%eax, (%esp)
	call	__ZN9__gnu_cxxneIPcNSt7__cxx1112basic_stringIcSt11char_traitsIcESaIcEEEEEbRKNS_17__normal_iteratorIT_T0_EESD_
	testb	%al, %al
	je	L173
	leal	16(%ebp), %eax
	movl	8(%ebp), %edx
	movl	%edx, (%esp)
	movl	%eax, %ecx
	call	__ZN9__gnu_cxx5__ops16_Iter_equals_valIKcEclINS_17__normal_iteratorIPcNSt7__cxx1112basic_stringIcSt11char_traitsIcESaIcEEEEEEEbT_
	subl	$4, %esp
	testb	%al, %al
	je	L174
	addl	$1, -12(%ebp)
L174:
	leal	8(%ebp), %ecx
	call	__ZN9__gnu_cxx17__normal_iteratorIPcNSt7__cxx1112basic_stringIcSt11char_traitsIcESaIcEEEEppEv
	jmp	L175
L173:
	movl	-12(%ebp), %eax
	leave
	ret
	.section	.text$_ZNSt10_Head_baseILj0ERKiLb0EEC2ES1_,"x"
	.linkonce discard
	.align 2
	.globl	__ZNSt10_Head_baseILj0ERKiLb0EEC2ES1_
	.def	__ZNSt10_Head_baseILj0ERKiLb0EEC2ES1_;	.scl	2;	.type	32;	.endef
__ZNSt10_Head_baseILj0ERKiLb0EEC2ES1_:
	pushl	%ebp
	movl	%esp, %ebp
	subl	$4, %esp
	movl	%ecx, -4(%ebp)
	movl	-4(%ebp), %eax
	movl	8(%ebp), %edx
	movl	%edx, (%eax)
	nop
	leave
	ret	$4
	.section	.text$_ZNSt11_Tuple_implILj0EJRKiEEC2ES1_,"x"
	.linkonce discard
	.align 2
	.globl	__ZNSt11_Tuple_implILj0EJRKiEEC2ES1_
	.def	__ZNSt11_Tuple_implILj0EJRKiEEC2ES1_;	.scl	2;	.type	32;	.endef
__ZNSt11_Tuple_implILj0EJRKiEEC2ES1_:
	pushl	%ebp
	movl	%esp, %ebp
	subl	$8, %esp
	movl	%ecx, -4(%ebp)
	movl	-4(%ebp), %eax
	movl	8(%ebp), %edx
	movl	%edx, (%esp)
	movl	%eax, %ecx
	call	__ZNSt10_Head_baseILj0ERKiLb0EEC2ES1_
	subl	$4, %esp
	nop
	leave
	ret	$4
	.weak	__ZNSt11_Tuple_implILj0EIRKiEEC2ES1_
	.def	__ZNSt11_Tuple_implILj0EIRKiEEC2ES1_;	.scl	2;	.type	32;	.endef
	.set	__ZNSt11_Tuple_implILj0EIRKiEEC2ES1_,__ZNSt11_Tuple_implILj0EJRKiEEC2ES1_
	.section	.text$_ZNSt5tupleIJRKiEEC1ES1_,"x"
	.linkonce discard
	.align 2
	.globl	__ZNSt5tupleIJRKiEEC1ES1_
	.def	__ZNSt5tupleIJRKiEEC1ES1_;	.scl	2;	.type	32;	.endef
__ZNSt5tupleIJRKiEEC1ES1_:
	pushl	%ebp
	movl	%esp, %ebp
	subl	$8, %esp
	movl	%ecx, -4(%ebp)
	movl	-4(%ebp), %eax
	movl	8(%ebp), %edx
	movl	%edx, (%esp)
	movl	%eax, %ecx
	call	__ZNSt11_Tuple_implILj0EJRKiEEC2ES1_
	subl	$4, %esp
	nop
	leave
	ret	$4
	.weak	__ZNSt5tupleIIRKiEEC1ES1_
	.def	__ZNSt5tupleIIRKiEEC1ES1_;	.scl	2;	.type	32;	.endef
	.set	__ZNSt5tupleIIRKiEEC1ES1_,__ZNSt5tupleIJRKiEEC1ES1_
	.section	.text$_ZNSt8__detail9_Map_baseIiSt4pairIKiS1_IiiEESaIS4_ENS_10_Select1stESt8equal_toIiESt4hashIiENS_18_Mod_range_hashingENS_20_Default_ranged_hashENS_20_Prime_rehash_policyENS_17_Hashtable_traitsILb0ELb0ELb1EEELb1EEixERS2_,"x"
	.linkonce discard
	.align 2
	.globl	__ZNSt8__detail9_Map_baseIiSt4pairIKiS1_IiiEESaIS4_ENS_10_Select1stESt8equal_toIiESt4hashIiENS_18_Mod_range_hashingENS_20_Default_ranged_hashENS_20_Prime_rehash_policyENS_17_Hashtable_traitsILb0ELb0ELb1EEELb1EEixERS2_
	.def	__ZNSt8__detail9_Map_baseIiSt4pairIKiS1_IiiEESaIS4_ENS_10_Select1stESt8equal_toIiESt4hashIiENS_18_Mod_range_hashingENS_20_Default_ranged_hashENS_20_Prime_rehash_policyENS_17_Hashtable_traitsILb0ELb0ELb1EEELb1EEixERS2_;	.scl	2;	.type	32;	.endef
__ZNSt8__detail9_Map_baseIiSt4pairIKiS1_IiiEESaIS4_ENS_10_Select1stESt8equal_toIiESt4hashIiENS_18_Mod_range_hashingENS_20_Default_ranged_hashENS_20_Prime_rehash_policyENS_17_Hashtable_traitsILb0ELb0ELb1EEELb1EEixERS2_:
	pushl	%ebp
	movl	%esp, %ebp
	subl	$72, %esp
	movl	%ecx, -44(%ebp)
	movl	-44(%ebp), %eax
	movl	%eax, -12(%ebp)
	movl	-12(%ebp), %eax
	movl	8(%ebp), %edx
	movl	%edx, (%esp)
	movl	%eax, %ecx
	call	__ZNKSt8__detail15_Hash_code_baseIiSt4pairIKiS1_IiiEENS_10_Select1stESt4hashIiENS_18_Mod_range_hashingENS_20_Default_ranged_hashELb0EE12_M_hash_codeERS2_
	subl	$4, %esp
	movl	%eax, -16(%ebp)
	movl	-12(%ebp), %eax
	movl	-16(%ebp), %edx
	movl	%edx, 4(%esp)
	movl	8(%ebp), %edx
	movl	%edx, (%esp)
	movl	%eax, %ecx
	call	__ZNKSt10_HashtableIiSt4pairIKiS0_IiiEESaIS3_ENSt8__detail10_Select1stESt8equal_toIiESt4hashIiENS5_18_Mod_range_hashingENS5_20_Default_ranged_hashENS5_20_Prime_rehash_policyENS5_17_Hashtable_traitsILb0ELb0ELb1EEEE15_M_bucket_indexERS1_j
	subl	$8, %esp
	movl	%eax, -20(%ebp)
	movl	-12(%ebp), %eax
	movl	-16(%ebp), %edx
	movl	%edx, 8(%esp)
	movl	8(%ebp), %edx
	movl	%edx, 4(%esp)
	movl	-20(%ebp), %edx
	movl	%edx, (%esp)
	movl	%eax, %ecx
	call	__ZNKSt10_HashtableIiSt4pairIKiS0_IiiEESaIS3_ENSt8__detail10_Select1stESt8equal_toIiESt4hashIiENS5_18_Mod_range_hashingENS5_20_Default_ranged_hashENS5_20_Prime_rehash_policyENS5_17_Hashtable_traitsILb0ELb0ELb1EEEE12_M_find_nodeEjRS1_j
	subl	$12, %esp
	movl	%eax, -24(%ebp)
	cmpl	$0, -24(%ebp)
	jne	L181
	leal	-32(%ebp), %eax
	movl	8(%ebp), %edx
	movl	%edx, (%esp)
	movl	%eax, %ecx
	call	__ZNSt5tupleIJRKiEEC1ES1_
	subl	$4, %esp
	movl	-12(%ebp), %eax
	leal	-33(%ebp), %edx
	movl	%edx, 8(%esp)
	leal	-32(%ebp), %edx
	movl	%edx, 4(%esp)
	movl	$__ZStL19piecewise_construct, (%esp)
	movl	%eax, %ecx
	call	__ZNSt8__detail16_Hashtable_allocISaINS_10_Hash_nodeISt4pairIKiS2_IiiEELb0EEEEE16_M_allocate_nodeIJRKSt21piecewise_construct_tSt5tupleIJRS3_EESD_IJEEEEEPS6_DpOT_
	subl	$12, %esp
	movl	%eax, -24(%ebp)
	movl	-12(%ebp), %eax
	movl	-24(%ebp), %edx
	movl	%edx, 8(%esp)
	movl	-16(%ebp), %edx
	movl	%edx, 4(%esp)
	movl	-20(%ebp), %edx
	movl	%edx, (%esp)
	movl	%eax, %ecx
	call	__ZNSt10_HashtableIiSt4pairIKiS0_IiiEESaIS3_ENSt8__detail10_Select1stESt8equal_toIiESt4hashIiENS5_18_Mod_range_hashingENS5_20_Default_ranged_hashENS5_20_Prime_rehash_policyENS5_17_Hashtable_traitsILb0ELb0ELb1EEEE21_M_insert_unique_nodeEjjPNS5_10_Hash_nodeIS3_Lb0EEE
	subl	$12, %esp
	movl	%eax, -28(%ebp)
	leal	-28(%ebp), %eax
	movl	%eax, %ecx
	call	__ZNKSt8__detail14_Node_iteratorISt4pairIKiS1_IiiEELb0ELb0EEptEv
	addl	$4, %eax
	jmp	L182
L181:
	movl	-24(%ebp), %eax
	movl	%eax, %ecx
	call	__ZNSt8__detail21_Hash_node_value_baseISt4pairIKiS1_IiiEEE4_M_vEv
	addl	$4, %eax
L182:
	leave
	ret	$4
	.section	.text$_ZNSt7__cxx1112basic_stringIcSt11char_traitsIcESaIcEE12_M_constructIPcEEvT_S7_,"x"
	.linkonce discard
	.align 2
	.globl	__ZNSt7__cxx1112basic_stringIcSt11char_traitsIcESaIcEE12_M_constructIPcEEvT_S7_
	.def	__ZNSt7__cxx1112basic_stringIcSt11char_traitsIcESaIcEE12_M_constructIPcEEvT_S7_;	.scl	2;	.type	32;	.endef
__ZNSt7__cxx1112basic_stringIcSt11char_traitsIcESaIcEE12_M_constructIPcEEvT_S7_:
	pushl	%ebp
	movl	%esp, %ebp
	subl	$56, %esp
	movl	%ecx, -28(%ebp)
	movl	-28(%ebp), %eax
	movb	%dl, 8(%esp)
	movl	12(%ebp), %edx
	movl	%edx, 4(%esp)
	movl	8(%ebp), %edx
	movl	%edx, (%esp)
	movl	%eax, %ecx
	call	__ZNSt7__cxx1112basic_stringIcSt11char_traitsIcESaIcEE16_M_construct_auxIPcEEvT_S7_St12__false_type
	subl	$12, %esp
	nop
	leave
	ret	$8
	.section	.text$_ZNSt12_Vector_baseIiSaIiEE12_Vector_implC1ERKS0_,"x"
	.linkonce discard
	.align 2
	.globl	__ZNSt12_Vector_baseIiSaIiEE12_Vector_implC1ERKS0_
	.def	__ZNSt12_Vector_baseIiSaIiEE12_Vector_implC1ERKS0_;	.scl	2;	.type	32;	.endef
__ZNSt12_Vector_baseIiSaIiEE12_Vector_implC1ERKS0_:
	pushl	%ebp
	movl	%esp, %ebp
	subl	$40, %esp
	movl	%ecx, -12(%ebp)
	movl	-12(%ebp), %eax
	movl	8(%ebp), %edx
	movl	%edx, (%esp)
	movl	%eax, %ecx
	call	__ZNSaIiEC2ERKS_
	subl	$4, %esp
	movl	-12(%ebp), %eax
	movl	$0, (%eax)
	movl	-12(%ebp), %eax
	movl	$0, 4(%eax)
	movl	-12(%ebp), %eax
	movl	$0, 8(%eax)
	nop
	leave
	ret	$4
	.section	.text$_ZNSt12_Vector_baseIiSaIiEE17_M_create_storageEj,"x"
	.linkonce discard
	.align 2
	.globl	__ZNSt12_Vector_baseIiSaIiEE17_M_create_storageEj
	.def	__ZNSt12_Vector_baseIiSaIiEE17_M_create_storageEj;	.scl	2;	.type	32;	.endef
__ZNSt12_Vector_baseIiSaIiEE17_M_create_storageEj:
	pushl	%ebp
	movl	%esp, %ebp
	subl	$40, %esp
	movl	%ecx, -12(%ebp)
	movl	-12(%ebp), %eax
	movl	8(%ebp), %edx
	movl	%edx, (%esp)
	movl	%eax, %ecx
	call	__ZNSt12_Vector_baseIiSaIiEE11_M_allocateEj
	subl	$4, %esp
	movl	%eax, %edx
	movl	-12(%ebp), %eax
	movl	%edx, (%eax)
	movl	-12(%ebp), %eax
	movl	(%eax), %edx
	movl	-12(%ebp), %eax
	movl	%edx, 4(%eax)
	movl	-12(%ebp), %eax
	movl	(%eax), %eax
	movl	8(%ebp), %edx
	sall	$2, %edx
	addl	%eax, %edx
	movl	-12(%ebp), %eax
	movl	%edx, 8(%eax)
	nop
	leave
	ret	$4
	.section	.text$_ZNSt12_Vector_baseIiSaIiEE13_M_deallocateEPij,"x"
	.linkonce discard
	.align 2
	.globl	__ZNSt12_Vector_baseIiSaIiEE13_M_deallocateEPij
	.def	__ZNSt12_Vector_baseIiSaIiEE13_M_deallocateEPij;	.scl	2;	.type	32;	.endef
__ZNSt12_Vector_baseIiSaIiEE13_M_deallocateEPij:
	pushl	%ebp
	movl	%esp, %ebp
	subl	$40, %esp
	movl	%ecx, -12(%ebp)
	cmpl	$0, 8(%ebp)
	je	L188
	movl	-12(%ebp), %eax
	movl	12(%ebp), %edx
	movl	%edx, 8(%esp)
	movl	8(%ebp), %edx
	movl	%edx, 4(%esp)
	movl	%eax, (%esp)
	call	__ZNSt16allocator_traitsISaIiEE10deallocateERS0_Pij
L188:
	nop
	leave
	ret	$8
	.section	.text$_ZSt27__uninitialized_default_n_aIPijiET_S1_T0_RSaIT1_E,"x"
	.linkonce discard
	.globl	__ZSt27__uninitialized_default_n_aIPijiET_S1_T0_RSaIT1_E
	.def	__ZSt27__uninitialized_default_n_aIPijiET_S1_T0_RSaIT1_E;	.scl	2;	.type	32;	.endef
__ZSt27__uninitialized_default_n_aIPijiET_S1_T0_RSaIT1_E:
	pushl	%ebp
	movl	%esp, %ebp
	subl	$24, %esp
	movl	12(%ebp), %eax
	movl	%eax, 4(%esp)
	movl	8(%ebp), %eax
	movl	%eax, (%esp)
	call	__ZSt25__uninitialized_default_nIPijET_S1_T0_
	leave
	ret
	.section	.text$_ZSt8_DestroyIPiEvT_S1_,"x"
	.linkonce discard
	.globl	__ZSt8_DestroyIPiEvT_S1_
	.def	__ZSt8_DestroyIPiEvT_S1_;	.scl	2;	.type	32;	.endef
__ZSt8_DestroyIPiEvT_S1_:
	pushl	%ebp
	movl	%esp, %ebp
	subl	$24, %esp
	movl	12(%ebp), %eax
	movl	%eax, 4(%esp)
	movl	8(%ebp), %eax
	movl	%eax, (%esp)
	call	__ZNSt12_Destroy_auxILb1EE9__destroyIPiEEvT_S3_
	nop
	leave
	ret
	.section	.text$_ZN9__gnu_cxxeqIPcNSt7__cxx1112basic_stringIcSt11char_traitsIcESaIcEEEEEbRKNS_17__normal_iteratorIT_T0_EESD_,"x"
	.linkonce discard
	.globl	__ZN9__gnu_cxxeqIPcNSt7__cxx1112basic_stringIcSt11char_traitsIcESaIcEEEEEbRKNS_17__normal_iteratorIT_T0_EESD_
	.def	__ZN9__gnu_cxxeqIPcNSt7__cxx1112basic_stringIcSt11char_traitsIcESaIcEEEEEbRKNS_17__normal_iteratorIT_T0_EESD_;	.scl	2;	.type	32;	.endef
__ZN9__gnu_cxxeqIPcNSt7__cxx1112basic_stringIcSt11char_traitsIcESaIcEEEEEbRKNS_17__normal_iteratorIT_T0_EESD_:
	pushl	%ebp
	movl	%esp, %ebp
	pushl	%ebx
	movl	8(%ebp), %ecx
	call	__ZNK9__gnu_cxx17__normal_iteratorIPcNSt7__cxx1112basic_stringIcSt11char_traitsIcESaIcEEEE4baseEv
	movl	(%eax), %ebx
	movl	12(%ebp), %eax
	movl	%eax, %ecx
	call	__ZNK9__gnu_cxx17__normal_iteratorIPcNSt7__cxx1112basic_stringIcSt11char_traitsIcESaIcEEEE4baseEv
	movl	(%eax), %eax
	cmpl	%eax, %ebx
	sete	%al
	popl	%ebx
	popl	%ebp
	ret
	.section	.text$_ZN9__gnu_cxx17__normal_iteratorIPcNSt7__cxx1112basic_stringIcSt11char_traitsIcESaIcEEEEmmEv,"x"
	.linkonce discard
	.align 2
	.globl	__ZN9__gnu_cxx17__normal_iteratorIPcNSt7__cxx1112basic_stringIcSt11char_traitsIcESaIcEEEEmmEv
	.def	__ZN9__gnu_cxx17__normal_iteratorIPcNSt7__cxx1112basic_stringIcSt11char_traitsIcESaIcEEEEmmEv;	.scl	2;	.type	32;	.endef
__ZN9__gnu_cxx17__normal_iteratorIPcNSt7__cxx1112basic_stringIcSt11char_traitsIcESaIcEEEEmmEv:
	pushl	%ebp
	movl	%esp, %ebp
	subl	$4, %esp
	movl	%ecx, -4(%ebp)
	movl	-4(%ebp), %eax
	movl	(%eax), %eax
	leal	-1(%eax), %edx
	movl	-4(%ebp), %eax
	movl	%edx, (%eax)
	movl	-4(%ebp), %eax
	leave
	ret
	.section	.text$_ZN9__gnu_cxxltIPcNSt7__cxx1112basic_stringIcSt11char_traitsIcESaIcEEEEEbRKNS_17__normal_iteratorIT_T0_EESD_,"x"
	.linkonce discard
	.globl	__ZN9__gnu_cxxltIPcNSt7__cxx1112basic_stringIcSt11char_traitsIcESaIcEEEEEbRKNS_17__normal_iteratorIT_T0_EESD_
	.def	__ZN9__gnu_cxxltIPcNSt7__cxx1112basic_stringIcSt11char_traitsIcESaIcEEEEEbRKNS_17__normal_iteratorIT_T0_EESD_;	.scl	2;	.type	32;	.endef
__ZN9__gnu_cxxltIPcNSt7__cxx1112basic_stringIcSt11char_traitsIcESaIcEEEEEbRKNS_17__normal_iteratorIT_T0_EESD_:
	pushl	%ebp
	movl	%esp, %ebp
	pushl	%ebx
	movl	8(%ebp), %ecx
	call	__ZNK9__gnu_cxx17__normal_iteratorIPcNSt7__cxx1112basic_stringIcSt11char_traitsIcESaIcEEEE4baseEv
	movl	(%eax), %ebx
	movl	12(%ebp), %eax
	movl	%eax, %ecx
	call	__ZNK9__gnu_cxx17__normal_iteratorIPcNSt7__cxx1112basic_stringIcSt11char_traitsIcESaIcEEEE4baseEv
	movl	(%eax), %eax
	cmpl	%eax, %ebx
	setb	%al
	popl	%ebx
	popl	%ebp
	ret
	.section	.text$_ZSt9iter_swapIN9__gnu_cxx17__normal_iteratorIPcNSt7__cxx1112basic_stringIcSt11char_traitsIcESaIcEEEEES9_EvT_T0_,"x"
	.linkonce discard
	.globl	__ZSt9iter_swapIN9__gnu_cxx17__normal_iteratorIPcNSt7__cxx1112basic_stringIcSt11char_traitsIcESaIcEEEEES9_EvT_T0_
	.def	__ZSt9iter_swapIN9__gnu_cxx17__normal_iteratorIPcNSt7__cxx1112basic_stringIcSt11char_traitsIcESaIcEEEEES9_EvT_T0_;	.scl	2;	.type	32;	.endef
__ZSt9iter_swapIN9__gnu_cxx17__normal_iteratorIPcNSt7__cxx1112basic_stringIcSt11char_traitsIcESaIcEEEEES9_EvT_T0_:
	pushl	%ebp
	movl	%esp, %ebp
	pushl	%ebx
	subl	$20, %esp
	leal	12(%ebp), %eax
	movl	%eax, %ecx
	call	__ZNK9__gnu_cxx17__normal_iteratorIPcNSt7__cxx1112basic_stringIcSt11char_traitsIcESaIcEEEEdeEv
	movl	%eax, %ebx
	leal	8(%ebp), %ecx
	call	__ZNK9__gnu_cxx17__normal_iteratorIPcNSt7__cxx1112basic_stringIcSt11char_traitsIcESaIcEEEEdeEv
	movl	%ebx, 4(%esp)
	movl	%eax, (%esp)
	call	__ZSt4swapIcEvRT_S1_
	nop
	addl	$20, %esp
	popl	%ebx
	popl	%ebp
	ret
	.section	.text$_ZN9__gnu_cxx17__normal_iteratorIPcNSt7__cxx1112basic_stringIcSt11char_traitsIcESaIcEEEEppEv,"x"
	.linkonce discard
	.align 2
	.globl	__ZN9__gnu_cxx17__normal_iteratorIPcNSt7__cxx1112basic_stringIcSt11char_traitsIcESaIcEEEEppEv
	.def	__ZN9__gnu_cxx17__normal_iteratorIPcNSt7__cxx1112basic_stringIcSt11char_traitsIcESaIcEEEEppEv;	.scl	2;	.type	32;	.endef
__ZN9__gnu_cxx17__normal_iteratorIPcNSt7__cxx1112basic_stringIcSt11char_traitsIcESaIcEEEEppEv:
	pushl	%ebp
	movl	%esp, %ebp
	subl	$4, %esp
	movl	%ecx, -4(%ebp)
	movl	-4(%ebp), %eax
	movl	(%eax), %eax
	leal	1(%eax), %edx
	movl	-4(%ebp), %eax
	movl	%edx, (%eax)
	movl	-4(%ebp), %eax
	leave
	ret
	.section	.text$_ZNKSt10_HashtableIiSt4pairIKiS0_IiiEESaIS3_ENSt8__detail10_Select1stESt8equal_toIiESt4hashIiENS5_18_Mod_range_hashingENS5_20_Default_ranged_hashENS5_20_Prime_rehash_policyENS5_17_Hashtable_traitsILb0ELb0ELb1EEEE8_M_beginEv,"x"
	.linkonce discard
	.align 2
	.globl	__ZNKSt10_HashtableIiSt4pairIKiS0_IiiEESaIS3_ENSt8__detail10_Select1stESt8equal_toIiESt4hashIiENS5_18_Mod_range_hashingENS5_20_Default_ranged_hashENS5_20_Prime_rehash_policyENS5_17_Hashtable_traitsILb0ELb0ELb1EEEE8_M_beginEv
	.def	__ZNKSt10_HashtableIiSt4pairIKiS0_IiiEESaIS3_ENSt8__detail10_Select1stESt8equal_toIiESt4hashIiENS5_18_Mod_range_hashingENS5_20_Default_ranged_hashENS5_20_Prime_rehash_policyENS5_17_Hashtable_traitsILb0ELb0ELb1EEEE8_M_beginEv;	.scl	2;	.type	32;	.endef
__ZNKSt10_HashtableIiSt4pairIKiS0_IiiEESaIS3_ENSt8__detail10_Select1stESt8equal_toIiESt4hashIiENS5_18_Mod_range_hashingENS5_20_Default_ranged_hashENS5_20_Prime_rehash_policyENS5_17_Hashtable_traitsILb0ELb0ELb1EEEE8_M_beginEv:
	pushl	%ebp
	movl	%esp, %ebp
	subl	$4, %esp
	movl	%ecx, -4(%ebp)
	movl	-4(%ebp), %eax
	movl	8(%eax), %eax
	leave
	ret
	.section	.text$_ZNSt8__detail16_Hashtable_allocISaINS_10_Hash_nodeISt4pairIKiS2_IiiEELb0EEEEE19_M_deallocate_nodesEPS6_,"x"
	.linkonce discard
	.align 2
	.globl	__ZNSt8__detail16_Hashtable_allocISaINS_10_Hash_nodeISt4pairIKiS2_IiiEELb0EEEEE19_M_deallocate_nodesEPS6_
	.def	__ZNSt8__detail16_Hashtable_allocISaINS_10_Hash_nodeISt4pairIKiS2_IiiEELb0EEEEE19_M_deallocate_nodesEPS6_;	.scl	2;	.type	32;	.endef
__ZNSt8__detail16_Hashtable_allocISaINS_10_Hash_nodeISt4pairIKiS2_IiiEELb0EEEEE19_M_deallocate_nodesEPS6_:
	pushl	%ebp
	movl	%esp, %ebp
	subl	$56, %esp
	movl	%ecx, -28(%ebp)
L205:
	cmpl	$0, 8(%ebp)
	je	L206
	movl	8(%ebp), %eax
	movl	%eax, -12(%ebp)
	movl	8(%ebp), %ecx
	call	__ZNKSt8__detail10_Hash_nodeISt4pairIKiS1_IiiEELb0EE7_M_nextEv
	movl	%eax, 8(%ebp)
	movl	-28(%ebp), %eax
	movl	-12(%ebp), %edx
	movl	%edx, (%esp)
	movl	%eax, %ecx
	call	__ZNSt8__detail16_Hashtable_allocISaINS_10_Hash_nodeISt4pairIKiS2_IiiEELb0EEEEE18_M_deallocate_nodeEPS6_
	subl	$4, %esp
	jmp	L205
L206:
	nop
	leave
	ret	$4
	.section	.text$_ZNSt10_HashtableIiSt4pairIKiS0_IiiEESaIS3_ENSt8__detail10_Select1stESt8equal_toIiESt4hashIiENS5_18_Mod_range_hashingENS5_20_Default_ranged_hashENS5_20_Prime_rehash_policyENS5_17_Hashtable_traitsILb0ELb0ELb1EEEE21_M_deallocate_bucketsEPPNS5_15_Hash_node_baseEj,"x"
	.linkonce discard
	.align 2
	.globl	__ZNSt10_HashtableIiSt4pairIKiS0_IiiEESaIS3_ENSt8__detail10_Select1stESt8equal_toIiESt4hashIiENS5_18_Mod_range_hashingENS5_20_Default_ranged_hashENS5_20_Prime_rehash_policyENS5_17_Hashtable_traitsILb0ELb0ELb1EEEE21_M_deallocate_bucketsEPPNS5_15_Hash_node_baseEj
	.def	__ZNSt10_HashtableIiSt4pairIKiS0_IiiEESaIS3_ENSt8__detail10_Select1stESt8equal_toIiESt4hashIiENS5_18_Mod_range_hashingENS5_20_Default_ranged_hashENS5_20_Prime_rehash_policyENS5_17_Hashtable_traitsILb0ELb0ELb1EEEE21_M_deallocate_bucketsEPPNS5_15_Hash_node_baseEj;	.scl	2;	.type	32;	.endef
__ZNSt10_HashtableIiSt4pairIKiS0_IiiEESaIS3_ENSt8__detail10_Select1stESt8equal_toIiESt4hashIiENS5_18_Mod_range_hashingENS5_20_Default_ranged_hashENS5_20_Prime_rehash_policyENS5_17_Hashtable_traitsILb0ELb0ELb1EEEE21_M_deallocate_bucketsEPPNS5_15_Hash_node_baseEj:
	pushl	%ebp
	movl	%esp, %ebp
	subl	$40, %esp
	movl	%ecx, -12(%ebp)
	movl	-12(%ebp), %eax
	movl	8(%ebp), %edx
	movl	%edx, (%esp)
	movl	%eax, %ecx
	call	__ZNKSt10_HashtableIiSt4pairIKiS0_IiiEESaIS3_ENSt8__detail10_Select1stESt8equal_toIiESt4hashIiENS5_18_Mod_range_hashingENS5_20_Default_ranged_hashENS5_20_Prime_rehash_policyENS5_17_Hashtable_traitsILb0ELb0ELb1EEEE21_M_uses_single_bucketEPPNS5_15_Hash_node_baseE
	subl	$4, %esp
	testb	%al, %al
	jne	L210
	movl	-12(%ebp), %eax
	movl	12(%ebp), %edx
	movl	%edx, 4(%esp)
	movl	8(%ebp), %edx
	movl	%edx, (%esp)
	movl	%eax, %ecx
	call	__ZNSt8__detail16_Hashtable_allocISaINS_10_Hash_nodeISt4pairIKiS2_IiiEELb0EEEEE21_M_deallocate_bucketsEPPNS_15_Hash_node_baseEj
	subl	$8, %esp
	jmp	L207
L210:
	nop
L207:
	leave
	ret	$8
	.section	.text$_ZN9__gnu_cxx5__ops16_Iter_equals_valIKcEC1ERS2_,"x"
	.linkonce discard
	.align 2
	.globl	__ZN9__gnu_cxx5__ops16_Iter_equals_valIKcEC1ERS2_
	.def	__ZN9__gnu_cxx5__ops16_Iter_equals_valIKcEC1ERS2_;	.scl	2;	.type	32;	.endef
__ZN9__gnu_cxx5__ops16_Iter_equals_valIKcEC1ERS2_:
	pushl	%ebp
	movl	%esp, %ebp
	subl	$4, %esp
	movl	%ecx, -4(%ebp)
	movl	-4(%ebp), %eax
	movl	8(%ebp), %edx
	movl	%edx, (%eax)
	nop
	leave
	ret	$4
	.section	.text$_ZN9__gnu_cxxneIPcNSt7__cxx1112basic_stringIcSt11char_traitsIcESaIcEEEEEbRKNS_17__normal_iteratorIT_T0_EESD_,"x"
	.linkonce discard
	.globl	__ZN9__gnu_cxxneIPcNSt7__cxx1112basic_stringIcSt11char_traitsIcESaIcEEEEEbRKNS_17__normal_iteratorIT_T0_EESD_
	.def	__ZN9__gnu_cxxneIPcNSt7__cxx1112basic_stringIcSt11char_traitsIcESaIcEEEEEbRKNS_17__normal_iteratorIT_T0_EESD_;	.scl	2;	.type	32;	.endef
__ZN9__gnu_cxxneIPcNSt7__cxx1112basic_stringIcSt11char_traitsIcESaIcEEEEEbRKNS_17__normal_iteratorIT_T0_EESD_:
	pushl	%ebp
	movl	%esp, %ebp
	pushl	%ebx
	movl	8(%ebp), %ecx
	call	__ZNK9__gnu_cxx17__normal_iteratorIPcNSt7__cxx1112basic_stringIcSt11char_traitsIcESaIcEEEE4baseEv
	movl	(%eax), %ebx
	movl	12(%ebp), %eax
	movl	%eax, %ecx
	call	__ZNK9__gnu_cxx17__normal_iteratorIPcNSt7__cxx1112basic_stringIcSt11char_traitsIcESaIcEEEE4baseEv
	movl	(%eax), %eax
	cmpl	%eax, %ebx
	setne	%al
	popl	%ebx
	popl	%ebp
	ret
	.section	.text$_ZN9__gnu_cxx5__ops16_Iter_equals_valIKcEclINS_17__normal_iteratorIPcNSt7__cxx1112basic_stringIcSt11char_traitsIcESaIcEEEEEEEbT_,"x"
	.linkonce discard
	.align 2
	.globl	__ZN9__gnu_cxx5__ops16_Iter_equals_valIKcEclINS_17__normal_iteratorIPcNSt7__cxx1112basic_stringIcSt11char_traitsIcESaIcEEEEEEEbT_
	.def	__ZN9__gnu_cxx5__ops16_Iter_equals_valIKcEclINS_17__normal_iteratorIPcNSt7__cxx1112basic_stringIcSt11char_traitsIcESaIcEEEEEEEbT_;	.scl	2;	.type	32;	.endef
__ZN9__gnu_cxx5__ops16_Iter_equals_valIKcEclINS_17__normal_iteratorIPcNSt7__cxx1112basic_stringIcSt11char_traitsIcESaIcEEEEEEEbT_:
	pushl	%ebp
	movl	%esp, %ebp
	subl	$24, %esp
	movl	%ecx, -12(%ebp)
	leal	8(%ebp), %ecx
	call	__ZNK9__gnu_cxx17__normal_iteratorIPcNSt7__cxx1112basic_stringIcSt11char_traitsIcESaIcEEEEdeEv
	movzbl	(%eax), %edx
	movl	-12(%ebp), %eax
	movl	(%eax), %eax
	movzbl	(%eax), %eax
	cmpb	%al, %dl
	sete	%al
	leave
	ret	$4
	.section	.text$_ZNKSt8__detail15_Hash_code_baseIiSt4pairIKiS1_IiiEENS_10_Select1stESt4hashIiENS_18_Mod_range_hashingENS_20_Default_ranged_hashELb0EE12_M_hash_codeERS2_,"x"
	.linkonce discard
	.align 2
	.globl	__ZNKSt8__detail15_Hash_code_baseIiSt4pairIKiS1_IiiEENS_10_Select1stESt4hashIiENS_18_Mod_range_hashingENS_20_Default_ranged_hashELb0EE12_M_hash_codeERS2_
	.def	__ZNKSt8__detail15_Hash_code_baseIiSt4pairIKiS1_IiiEENS_10_Select1stESt4hashIiENS_18_Mod_range_hashingENS_20_Default_ranged_hashELb0EE12_M_hash_codeERS2_;	.scl	2;	.type	32;	.endef
__ZNKSt8__detail15_Hash_code_baseIiSt4pairIKiS1_IiiEENS_10_Select1stESt4hashIiENS_18_Mod_range_hashingENS_20_Default_ranged_hashELb0EE12_M_hash_codeERS2_:
	pushl	%ebp
	movl	%esp, %ebp
	pushl	%ebx
	subl	$36, %esp
	movl	%ecx, -12(%ebp)
	movl	8(%ebp), %eax
	movl	(%eax), %ebx
	movl	-12(%ebp), %eax
	movl	%eax, %ecx
	call	__ZNKSt8__detail15_Hash_code_baseIiSt4pairIKiS1_IiiEENS_10_Select1stESt4hashIiENS_18_Mod_range_hashingENS_20_Default_ranged_hashELb0EE5_M_h1Ev
	movl	%ebx, (%esp)
	movl	%eax, %ecx
	call	__ZNKSt4hashIiEclEi
	subl	$4, %esp
	movl	-4(%ebp), %ebx
	leave
	ret	$4
	.section	.text$_ZNKSt10_HashtableIiSt4pairIKiS0_IiiEESaIS3_ENSt8__detail10_Select1stESt8equal_toIiESt4hashIiENS5_18_Mod_range_hashingENS5_20_Default_ranged_hashENS5_20_Prime_rehash_policyENS5_17_Hashtable_traitsILb0ELb0ELb1EEEE15_M_bucket_indexERS1_j,"x"
	.linkonce discard
	.align 2
	.globl	__ZNKSt10_HashtableIiSt4pairIKiS0_IiiEESaIS3_ENSt8__detail10_Select1stESt8equal_toIiESt4hashIiENS5_18_Mod_range_hashingENS5_20_Default_ranged_hashENS5_20_Prime_rehash_policyENS5_17_Hashtable_traitsILb0ELb0ELb1EEEE15_M_bucket_indexERS1_j
	.def	__ZNKSt10_HashtableIiSt4pairIKiS0_IiiEESaIS3_ENSt8__detail10_Select1stESt8equal_toIiESt4hashIiENS5_18_Mod_range_hashingENS5_20_Default_ranged_hashENS5_20_Prime_rehash_policyENS5_17_Hashtable_traitsILb0ELb0ELb1EEEE15_M_bucket_indexERS1_j;	.scl	2;	.type	32;	.endef
__ZNKSt10_HashtableIiSt4pairIKiS0_IiiEESaIS3_ENSt8__detail10_Select1stESt8equal_toIiESt4hashIiENS5_18_Mod_range_hashingENS5_20_Default_ranged_hashENS5_20_Prime_rehash_policyENS5_17_Hashtable_traitsILb0ELb0ELb1EEEE15_M_bucket_indexERS1_j:
	pushl	%ebp
	movl	%esp, %ebp
	subl	$40, %esp
	movl	%ecx, -12(%ebp)
	movl	-12(%ebp), %eax
	movl	4(%eax), %edx
	movl	-12(%ebp), %eax
	movl	%edx, 8(%esp)
	movl	12(%ebp), %edx
	movl	%edx, 4(%esp)
	movl	8(%ebp), %edx
	movl	%edx, (%esp)
	movl	%eax, %ecx
	call	__ZNKSt8__detail15_Hash_code_baseIiSt4pairIKiS1_IiiEENS_10_Select1stESt4hashIiENS_18_Mod_range_hashingENS_20_Default_ranged_hashELb0EE15_M_bucket_indexERS2_jj
	subl	$12, %esp
	leave
	ret	$8
	.section	.text$_ZNKSt10_HashtableIiSt4pairIKiS0_IiiEESaIS3_ENSt8__detail10_Select1stESt8equal_toIiESt4hashIiENS5_18_Mod_range_hashingENS5_20_Default_ranged_hashENS5_20_Prime_rehash_policyENS5_17_Hashtable_traitsILb0ELb0ELb1EEEE12_M_find_nodeEjRS1_j,"x"
	.linkonce discard
	.align 2
	.globl	__ZNKSt10_HashtableIiSt4pairIKiS0_IiiEESaIS3_ENSt8__detail10_Select1stESt8equal_toIiESt4hashIiENS5_18_Mod_range_hashingENS5_20_Default_ranged_hashENS5_20_Prime_rehash_policyENS5_17_Hashtable_traitsILb0ELb0ELb1EEEE12_M_find_nodeEjRS1_j
	.def	__ZNKSt10_HashtableIiSt4pairIKiS0_IiiEESaIS3_ENSt8__detail10_Select1stESt8equal_toIiESt4hashIiENS5_18_Mod_range_hashingENS5_20_Default_ranged_hashENS5_20_Prime_rehash_policyENS5_17_Hashtable_traitsILb0ELb0ELb1EEEE12_M_find_nodeEjRS1_j;	.scl	2;	.type	32;	.endef
__ZNKSt10_HashtableIiSt4pairIKiS0_IiiEESaIS3_ENSt8__detail10_Select1stESt8equal_toIiESt4hashIiENS5_18_Mod_range_hashingENS5_20_Default_ranged_hashENS5_20_Prime_rehash_policyENS5_17_Hashtable_traitsILb0ELb0ELb1EEEE12_M_find_nodeEjRS1_j:
	pushl	%ebp
	movl	%esp, %ebp
	subl	$56, %esp
	movl	%ecx, -28(%ebp)
	movl	-28(%ebp), %eax
	movl	16(%ebp), %edx
	movl	%edx, 8(%esp)
	movl	12(%ebp), %edx
	movl	%edx, 4(%esp)
	movl	8(%ebp), %edx
	movl	%edx, (%esp)
	movl	%eax, %ecx
	call	__ZNKSt10_HashtableIiSt4pairIKiS0_IiiEESaIS3_ENSt8__detail10_Select1stESt8equal_toIiESt4hashIiENS5_18_Mod_range_hashingENS5_20_Default_ranged_hashENS5_20_Prime_rehash_policyENS5_17_Hashtable_traitsILb0ELb0ELb1EEEE19_M_find_before_nodeEjRS1_j
	subl	$12, %esp
	movl	%eax, -12(%ebp)
	cmpl	$0, -12(%ebp)
	je	L221
	movl	-12(%ebp), %eax
	movl	(%eax), %eax
	jmp	L222
L221:
	movl	$0, %eax
L222:
	leave
	ret	$12
	.section	.text$_ZNSt15aligned_storageILj12ELj4EEC2Ev,"x"
	.linkonce discard
	.align 2
	.globl	__ZNSt15aligned_storageILj12ELj4EEC2Ev
	.def	__ZNSt15aligned_storageILj12ELj4EEC2Ev;	.scl	2;	.type	32;	.endef
__ZNSt15aligned_storageILj12ELj4EEC2Ev:
	pushl	%ebp
	movl	%esp, %ebp
	subl	$4, %esp
	movl	%ecx, -4(%ebp)
	nop
	leave
	ret
	.section	.text$_ZN9__gnu_cxx16__aligned_bufferISt4pairIKiS1_IiiEEEC1Ev,"x"
	.linkonce discard
	.align 2
	.globl	__ZN9__gnu_cxx16__aligned_bufferISt4pairIKiS1_IiiEEEC1Ev
	.def	__ZN9__gnu_cxx16__aligned_bufferISt4pairIKiS1_IiiEEEC1Ev;	.scl	2;	.type	32;	.endef
__ZN9__gnu_cxx16__aligned_bufferISt4pairIKiS1_IiiEEEC1Ev:
	pushl	%ebp
	movl	%esp, %ebp
	subl	$4, %esp
	movl	%ecx, -4(%ebp)
	movl	-4(%ebp), %eax
	movl	%eax, %ecx
	call	__ZNSt15aligned_storageILj12ELj4EEC2Ev
	nop
	leave
	ret
	.section	.text$_ZNSt8__detail21_Hash_node_value_baseISt4pairIKiS1_IiiEEEC2Ev,"x"
	.linkonce discard
	.align 2
	.globl	__ZNSt8__detail21_Hash_node_value_baseISt4pairIKiS1_IiiEEEC2Ev
	.def	__ZNSt8__detail21_Hash_node_value_baseISt4pairIKiS1_IiiEEEC2Ev;	.scl	2;	.type	32;	.endef
__ZNSt8__detail21_Hash_node_value_baseISt4pairIKiS1_IiiEEEC2Ev:
	pushl	%ebp
	movl	%esp, %ebp
	subl	$4, %esp
	movl	%ecx, -4(%ebp)
	movl	-4(%ebp), %eax
	movl	%eax, %ecx
	call	__ZNSt8__detail15_Hash_node_baseC2Ev
	movl	-4(%ebp), %eax
	addl	$4, %eax
	movl	%eax, %ecx
	call	__ZN9__gnu_cxx16__aligned_bufferISt4pairIKiS1_IiiEEEC1Ev
	nop
	leave
	ret
	.section	.text$_ZNSt8__detail10_Hash_nodeISt4pairIKiS1_IiiEELb0EEC1Ev,"x"
	.linkonce discard
	.align 2
	.globl	__ZNSt8__detail10_Hash_nodeISt4pairIKiS1_IiiEELb0EEC1Ev
	.def	__ZNSt8__detail10_Hash_nodeISt4pairIKiS1_IiiEELb0EEC1Ev;	.scl	2;	.type	32;	.endef
__ZNSt8__detail10_Hash_nodeISt4pairIKiS1_IiiEELb0EEC1Ev:
	pushl	%ebp
	movl	%esp, %ebp
	subl	$4, %esp
	movl	%ecx, -4(%ebp)
	movl	-4(%ebp), %eax
	movl	%eax, %ecx
	call	__ZNSt8__detail21_Hash_node_value_baseISt4pairIKiS1_IiiEEEC2Ev
	nop
	leave
	ret
	.section	.text$_ZSt7forwardIRKSt21piecewise_construct_tEOT_RNSt16remove_referenceIS3_E4typeE,"x"
	.linkonce discard
	.globl	__ZSt7forwardIRKSt21piecewise_construct_tEOT_RNSt16remove_referenceIS3_E4typeE
	.def	__ZSt7forwardIRKSt21piecewise_construct_tEOT_RNSt16remove_referenceIS3_E4typeE;	.scl	2;	.type	32;	.endef
__ZSt7forwardIRKSt21piecewise_construct_tEOT_RNSt16remove_referenceIS3_E4typeE:
	pushl	%ebp
	movl	%esp, %ebp
	movl	8(%ebp), %eax
	popl	%ebp
	ret
	.section	.text$_ZSt7forwardISt5tupleIJRKiEEEOT_RNSt16remove_referenceIS4_E4typeE,"x"
	.linkonce discard
	.globl	__ZSt7forwardISt5tupleIJRKiEEEOT_RNSt16remove_referenceIS4_E4typeE
	.def	__ZSt7forwardISt5tupleIJRKiEEEOT_RNSt16remove_referenceIS4_E4typeE;	.scl	2;	.type	32;	.endef
__ZSt7forwardISt5tupleIJRKiEEEOT_RNSt16remove_referenceIS4_E4typeE:
	pushl	%ebp
	movl	%esp, %ebp
	movl	8(%ebp), %eax
	popl	%ebp
	ret
	.weak	__ZSt7forwardISt5tupleIIRKiEEEOT_RNSt16remove_referenceIS4_E4typeE
	.def	__ZSt7forwardISt5tupleIIRKiEEEOT_RNSt16remove_referenceIS4_E4typeE;	.scl	2;	.type	32;	.endef
	.set	__ZSt7forwardISt5tupleIIRKiEEEOT_RNSt16remove_referenceIS4_E4typeE,__ZSt7forwardISt5tupleIJRKiEEEOT_RNSt16remove_referenceIS4_E4typeE
	.section	.text$_ZSt7forwardISt5tupleIJEEEOT_RNSt16remove_referenceIS2_E4typeE,"x"
	.linkonce discard
	.globl	__ZSt7forwardISt5tupleIJEEEOT_RNSt16remove_referenceIS2_E4typeE
	.def	__ZSt7forwardISt5tupleIJEEEOT_RNSt16remove_referenceIS2_E4typeE;	.scl	2;	.type	32;	.endef
__ZSt7forwardISt5tupleIJEEEOT_RNSt16remove_referenceIS2_E4typeE:
	pushl	%ebp
	movl	%esp, %ebp
	movl	8(%ebp), %eax
	popl	%ebp
	ret
	.weak	__ZSt7forwardISt5tupleIIEEEOT_RNSt16remove_referenceIS2_E4typeE
	.def	__ZSt7forwardISt5tupleIIEEEOT_RNSt16remove_referenceIS2_E4typeE;	.scl	2;	.type	32;	.endef
	.set	__ZSt7forwardISt5tupleIIEEEOT_RNSt16remove_referenceIS2_E4typeE,__ZSt7forwardISt5tupleIJEEEOT_RNSt16remove_referenceIS2_E4typeE
	.section	.text$_ZNSt8__detail16_Hashtable_allocISaINS_10_Hash_nodeISt4pairIKiS2_IiiEELb0EEEEE16_M_allocate_nodeIJRKSt21piecewise_construct_tSt5tupleIJRS3_EESD_IJEEEEEPS6_DpOT_,"x"
	.linkonce discard
	.align 2
	.globl	__ZNSt8__detail16_Hashtable_allocISaINS_10_Hash_nodeISt4pairIKiS2_IiiEELb0EEEEE16_M_allocate_nodeIJRKSt21piecewise_construct_tSt5tupleIJRS3_EESD_IJEEEEEPS6_DpOT_
	.def	__ZNSt8__detail16_Hashtable_allocISaINS_10_Hash_nodeISt4pairIKiS2_IiiEELb0EEEEE16_M_allocate_nodeIJRKSt21piecewise_construct_tSt5tupleIJRS3_EESD_IJEEEEEPS6_DpOT_;	.scl	2;	.type	32;	.endef
__ZNSt8__detail16_Hashtable_allocISaINS_10_Hash_nodeISt4pairIKiS2_IiiEELb0EEEEE16_M_allocate_nodeIJRKSt21piecewise_construct_tSt5tupleIJRS3_EESD_IJEEEEEPS6_DpOT_:
	pushl	%ebp
	movl	%esp, %ebp
	pushl	%edi
	pushl	%esi
	pushl	%ebx
	subl	$140, %esp
	movl	%ecx, -44(%ebp)
	movl	$___gxx_personality_sj0, -72(%ebp)
	movl	$LLSDA12475, -68(%ebp)
	leal	-64(%ebp), %eax
	leal	-24(%ebp), %ebx
	movl	%ebx, (%eax)
	movl	$L240, %edx
	movl	%edx, 4(%eax)
	movl	%esp, 8(%eax)
	leal	-96(%ebp), %eax
	movl	%eax, (%esp)
	call	__Unwind_SjLj_Register
	movl	-44(%ebp), %eax
	movl	$-1, -92(%ebp)
	movl	%eax, %ecx
	call	__ZNSt8__detail16_Hashtable_allocISaINS_10_Hash_nodeISt4pairIKiS2_IiiEELb0EEEEE17_M_node_allocatorEv
	movl	$1, 4(%esp)
	movl	%eax, (%esp)
	call	__ZNSt16allocator_traitsISaINSt8__detail10_Hash_nodeISt4pairIKiS2_IiiEELb0EEEEE8allocateERS7_j
	movl	%eax, -28(%ebp)
	movl	-28(%ebp), %eax
	movl	%eax, (%esp)
	call	__ZSt11__addressofINSt8__detail10_Hash_nodeISt4pairIKiS2_IiiEELb0EEEEPT_RS7_
	movl	%eax, -32(%ebp)
	movl	-44(%ebp), %eax
	movl	$1, -92(%ebp)
	movl	%eax, %ecx
	call	__ZNSt8__detail16_Hashtable_allocISaINS_10_Hash_nodeISt4pairIKiS2_IiiEELb0EEEEE17_M_node_allocatorEv
	movl	%eax, %edx
	leal	-33(%ebp), %eax
	movl	%edx, (%esp)
	movl	%eax, %ecx
	call	__ZNSaISt4pairIKiS_IiiEEEC1INSt8__detail10_Hash_nodeIS2_Lb0EEEEERKSaIT_E
	subl	$4, %esp
	movl	-32(%ebp), %eax
	movl	%eax, 4(%esp)
	movl	$16, (%esp)
	call	__ZnwjPv
	testl	%eax, %eax
	je	L235
	movl	%eax, %ecx
	call	__ZNSt8__detail10_Hash_nodeISt4pairIKiS1_IiiEELb0EEC1Ev
L235:
	movl	16(%ebp), %eax
	movl	%eax, (%esp)
	call	__ZSt7forwardISt5tupleIJEEEOT_RNSt16remove_referenceIS2_E4typeE
	movl	%eax, -100(%ebp)
	movl	12(%ebp), %eax
	movl	%eax, (%esp)
	call	__ZSt7forwardISt5tupleIJRKiEEEOT_RNSt16remove_referenceIS4_E4typeE
	movl	%eax, -104(%ebp)
	movl	8(%ebp), %eax
	movl	%eax, (%esp)
	call	__ZSt7forwardIRKSt21piecewise_construct_tEOT_RNSt16remove_referenceIS3_E4typeE
	movl	%eax, -108(%ebp)
	movl	-32(%ebp), %eax
	movl	%eax, %ecx
	call	__ZNSt8__detail21_Hash_node_value_baseISt4pairIKiS1_IiiEEE9_M_valptrEv
	movl	-100(%ebp), %esi
	movl	%esi, 16(%esp)
	movl	-104(%ebp), %edi
	movl	%edi, 12(%esp)
	movl	-108(%ebp), %ebx
	movl	%ebx, 8(%esp)
	movl	%eax, 4(%esp)
	leal	-33(%ebp), %eax
	movl	%eax, (%esp)
	movl	$2, -92(%ebp)
	call	__ZNSt16allocator_traitsISaISt4pairIKiS0_IiiEEEE9constructIS3_JRKSt21piecewise_construct_tSt5tupleIJRS1_EESA_IJEEEEEDTcl12_S_constructfp_fp0_spcl7forwardIT0_Efp1_EEERS4_PT_DpOSE_
	movl	-32(%ebp), %eax
	movl	%eax, -100(%ebp)
	leal	-33(%ebp), %eax
	movl	%eax, %ecx
	call	__ZNSaISt4pairIKiS_IiiEEED1Ev
	movl	-100(%ebp), %eax
	movl	%eax, -100(%ebp)
	jmp	L244
L242:
	movl	%edx, -100(%ebp)
	leal	-33(%ebp), %eax
	movl	%eax, %ecx
	call	__ZNSaISt4pairIKiS_IiiEEED1Ev
	movl	-100(%ebp), %eax
	jmp	L238
L240:
	leal	24(%ebp), %ebp
	movl	-88(%ebp), %edx
	movl	-92(%ebp), %eax
	testl	%eax, %eax
	je	L241
	subl	$1, %eax
	testl	%eax, %eax
	je	L242
	subl	$1, %eax
	testl	%eax, %eax
	je	L243
	subl	$1, %eax
	ud2
L241:
	movl	%edx, %eax
L238:
	movl	%eax, (%esp)
	call	___cxa_begin_catch
	movl	-44(%ebp), %eax
	movl	$3, -92(%ebp)
	movl	%eax, %ecx
	call	__ZNSt8__detail16_Hashtable_allocISaINS_10_Hash_nodeISt4pairIKiS2_IiiEELb0EEEEE17_M_node_allocatorEv
	movl	%eax, %edx
	movl	$1, 8(%esp)
	movl	-28(%ebp), %eax
	movl	%eax, 4(%esp)
	movl	%edx, (%esp)
	call	__ZNSt16allocator_traitsISaINSt8__detail10_Hash_nodeISt4pairIKiS2_IiiEELb0EEEEE10deallocateERS7_PS6_j
	call	___cxa_rethrow
L243:
	movl	%edx, -100(%ebp)
	movl	$0, -92(%ebp)
	call	___cxa_end_catch
	movl	-100(%ebp), %eax
	movl	%eax, (%esp)
	movl	$-1, -92(%ebp)
	call	__Unwind_SjLj_Resume
L244:
	leal	-96(%ebp), %eax
	movl	%eax, (%esp)
	call	__Unwind_SjLj_Unregister
	movl	-100(%ebp), %eax
	leal	-12(%ebp), %esp
	popl	%ebx
	popl	%esi
	popl	%edi
	popl	%ebp
	ret	$12
	.section	.gcc_except_table,"w"
	.align 4
LLSDA12475:
	.byte	0xff
	.byte	0
	.uleb128 LLSDATT12475-LLSDATTD12475
LLSDATTD12475:
	.byte	0x1
	.uleb128 LLSDACSE12475-LLSDACSB12475
LLSDACSB12475:
	.uleb128 0
	.uleb128 0x1
	.uleb128 0x1
	.uleb128 0x3
	.uleb128 0x2
	.uleb128 0
LLSDACSE12475:
	.byte	0x1
	.byte	0
	.byte	0
	.byte	0x7d
	.align 4
	.long	0
LLSDATT12475:
	.section	.text$_ZNSt8__detail16_Hashtable_allocISaINS_10_Hash_nodeISt4pairIKiS2_IiiEELb0EEEEE16_M_allocate_nodeIJRKSt21piecewise_construct_tSt5tupleIJRS3_EESD_IJEEEEEPS6_DpOT_,"x"
	.linkonce discard
	.weak	__ZNSt8__detail16_Hashtable_allocISaINS_10_Hash_nodeISt4pairIKiS2_IiiEELb0EEEEE16_M_allocate_nodeIIRKSt21piecewise_construct_tSt5tupleIIRS3_EESD_IIEEEEEPS6_DpOT_
	.def	__ZNSt8__detail16_Hashtable_allocISaINS_10_Hash_nodeISt4pairIKiS2_IiiEELb0EEEEE16_M_allocate_nodeIIRKSt21piecewise_construct_tSt5tupleIIRS3_EESD_IIEEEEEPS6_DpOT_;	.scl	2;	.type	32;	.endef
	.set	__ZNSt8__detail16_Hashtable_allocISaINS_10_Hash_nodeISt4pairIKiS2_IiiEELb0EEEEE16_M_allocate_nodeIIRKSt21piecewise_construct_tSt5tupleIIRS3_EESD_IIEEEEEPS6_DpOT_,__ZNSt8__detail16_Hashtable_allocISaINS_10_Hash_nodeISt4pairIKiS2_IiiEELb0EEEEE16_M_allocate_nodeIJRKSt21piecewise_construct_tSt5tupleIJRS3_EESD_IJEEEEEPS6_DpOT_
	.section	.text$_ZSt7forwardIRSt4pairIKiS0_IiiEEEOT_RNSt16remove_referenceIS5_E4typeE,"x"
	.linkonce discard
	.globl	__ZSt7forwardIRSt4pairIKiS0_IiiEEEOT_RNSt16remove_referenceIS5_E4typeE
	.def	__ZSt7forwardIRSt4pairIKiS0_IiiEEEOT_RNSt16remove_referenceIS5_E4typeE;	.scl	2;	.type	32;	.endef
__ZSt7forwardIRSt4pairIKiS0_IiiEEEOT_RNSt16remove_referenceIS5_E4typeE:
	pushl	%ebp
	movl	%esp, %ebp
	movl	8(%ebp), %eax
	popl	%ebp
	ret
	.section	.text$_ZNSt10__pair_getILj0EE5__getIKiSt4pairIiiEEERT_RS3_IS5_T0_E,"x"
	.linkonce discard
	.globl	__ZNSt10__pair_getILj0EE5__getIKiSt4pairIiiEEERT_RS3_IS5_T0_E
	.def	__ZNSt10__pair_getILj0EE5__getIKiSt4pairIiiEEERT_RS3_IS5_T0_E;	.scl	2;	.type	32;	.endef
__ZNSt10__pair_getILj0EE5__getIKiSt4pairIiiEEERT_RS3_IS5_T0_E:
	pushl	%ebp
	movl	%esp, %ebp
	movl	8(%ebp), %eax
	popl	%ebp
	ret
	.section	.text$_ZSt3getILj0EKiSt4pairIiiEERNSt13tuple_elementIXT_ES1_IT0_T1_EE4typeERS6_,"x"
	.linkonce discard
	.globl	__ZSt3getILj0EKiSt4pairIiiEERNSt13tuple_elementIXT_ES1_IT0_T1_EE4typeERS6_
	.def	__ZSt3getILj0EKiSt4pairIiiEERNSt13tuple_elementIXT_ES1_IT0_T1_EE4typeERS6_;	.scl	2;	.type	32;	.endef
__ZSt3getILj0EKiSt4pairIiiEERNSt13tuple_elementIXT_ES1_IT0_T1_EE4typeERS6_:
	pushl	%ebp
	movl	%esp, %ebp
	subl	$4, %esp
	movl	8(%ebp), %eax
	movl	%eax, (%esp)
	call	__ZNSt10__pair_getILj0EE5__getIKiSt4pairIiiEEERT_RS3_IS5_T0_E
	leave
	ret
	.section	.text$_ZNSt10_HashtableIiSt4pairIKiS0_IiiEESaIS3_ENSt8__detail10_Select1stESt8equal_toIiESt4hashIiENS5_18_Mod_range_hashingENS5_20_Default_ranged_hashENS5_20_Prime_rehash_policyENS5_17_Hashtable_traitsILb0ELb0ELb1EEEE21_M_insert_unique_nodeEjjPNS5_10_Hash_nodeIS3_Lb0EEE,"x"
	.linkonce discard
	.align 2
	.globl	__ZNSt10_HashtableIiSt4pairIKiS0_IiiEESaIS3_ENSt8__detail10_Select1stESt8equal_toIiESt4hashIiENS5_18_Mod_range_hashingENS5_20_Default_ranged_hashENS5_20_Prime_rehash_policyENS5_17_Hashtable_traitsILb0ELb0ELb1EEEE21_M_insert_unique_nodeEjjPNS5_10_Hash_nodeIS3_Lb0EEE
	.def	__ZNSt10_HashtableIiSt4pairIKiS0_IiiEESaIS3_ENSt8__detail10_Select1stESt8equal_toIiESt4hashIiENS5_18_Mod_range_hashingENS5_20_Default_ranged_hashENS5_20_Prime_rehash_policyENS5_17_Hashtable_traitsILb0ELb0ELb1EEEE21_M_insert_unique_nodeEjjPNS5_10_Hash_nodeIS3_Lb0EEE;	.scl	2;	.type	32;	.endef
__ZNSt10_HashtableIiSt4pairIKiS0_IiiEESaIS3_ENSt8__detail10_Select1stESt8equal_toIiESt4hashIiENS5_18_Mod_range_hashingENS5_20_Default_ranged_hashENS5_20_Prime_rehash_policyENS5_17_Hashtable_traitsILb0ELb0ELb1EEEE21_M_insert_unique_nodeEjjPNS5_10_Hash_nodeIS3_Lb0EEE:
	pushl	%ebp
	movl	%esp, %ebp
	pushl	%edi
	pushl	%esi
	pushl	%ebx
	subl	$124, %esp
	movl	%ecx, -60(%ebp)
	movl	$___gxx_personality_sj0, -88(%ebp)
	movl	$LLSDA12491, -84(%ebp)
	leal	-80(%ebp), %eax
	leal	-24(%ebp), %ebx
	movl	%ebx, (%eax)
	movl	$L256, %edx
	movl	%edx, 4(%eax)
	movl	%esp, 8(%eax)
	leal	-112(%ebp), %eax
	movl	%eax, (%esp)
	call	__Unwind_SjLj_Register
	movl	-60(%ebp), %eax
	addl	$16, %eax
	movl	%eax, %ecx
	call	__ZNKSt8__detail20_Prime_rehash_policy8_M_stateEv
	movl	%eax, -36(%ebp)
	leal	-36(%ebp), %eax
	movl	%eax, -28(%ebp)
	movl	-60(%ebp), %eax
	movl	12(%eax), %edx
	movl	-60(%ebp), %eax
	movl	4(%eax), %eax
	movl	-60(%ebp), %ecx
	addl	$16, %ecx
	movl	$1, 8(%esp)
	movl	%edx, 4(%esp)
	movl	%eax, (%esp)
	movl	$-1, -108(%ebp)
	call	__ZNKSt8__detail20_Prime_rehash_policy14_M_need_rehashEjjj
	subl	$12, %esp
	movl	%eax, -44(%ebp)
	movl	%edx, -40(%ebp)
	movzbl	-44(%ebp), %eax
	testb	%al, %al
	je	L252
	movl	-40(%ebp), %edx
	movl	-60(%ebp), %eax
	movl	-28(%ebp), %ecx
	movl	%ecx, 4(%esp)
	movl	%edx, (%esp)
	movl	$1, -108(%ebp)
	movl	%eax, %ecx
	call	__ZNSt10_HashtableIiSt4pairIKiS0_IiiEESaIS3_ENSt8__detail10_Select1stESt8equal_toIiESt4hashIiENS5_18_Mod_range_hashingENS5_20_Default_ranged_hashENS5_20_Prime_rehash_policyENS5_17_Hashtable_traitsILb0ELb0ELb1EEEE9_M_rehashEjRKj
	subl	$8, %esp
	movl	16(%ebp), %eax
	movl	%eax, %ecx
	call	__ZNSt8__detail21_Hash_node_value_baseISt4pairIKiS1_IiiEEE4_M_vEv
	movl	%eax, -116(%ebp)
	movl	-60(%ebp), %eax
	movl	%eax, %ecx
	call	__ZNSt8__detail15_Hash_code_baseIiSt4pairIKiS1_IiiEENS_10_Select1stESt4hashIiENS_18_Mod_range_hashingENS_20_Default_ranged_hashELb0EE10_M_extractEv
	movl	-116(%ebp), %esi
	movl	%esi, (%esp)
	movl	%eax, %ecx
	call	__ZNKSt8__detail10_Select1stclIRSt4pairIKiS2_IiiEEEEDTcl3getILi0EEcl7forwardIT_Efp_EEEOS7_
	subl	$4, %esp
	movl	%eax, %ecx
	movl	-60(%ebp), %eax
	movl	12(%ebp), %edx
	movl	%edx, 4(%esp)
	movl	%ecx, (%esp)
	movl	%eax, %ecx
	call	__ZNKSt10_HashtableIiSt4pairIKiS0_IiiEESaIS3_ENSt8__detail10_Select1stESt8equal_toIiESt4hashIiENS5_18_Mod_range_hashingENS5_20_Default_ranged_hashENS5_20_Prime_rehash_policyENS5_17_Hashtable_traitsILb0ELb0ELb1EEEE15_M_bucket_indexERS1_j
	subl	$8, %esp
	movl	%eax, 8(%ebp)
L252:
	movl	-60(%ebp), %eax
	movl	12(%ebp), %edx
	movl	%edx, 4(%esp)
	movl	16(%ebp), %edx
	movl	%edx, (%esp)
	movl	%eax, %ecx
	call	__ZNKSt8__detail15_Hash_code_baseIiSt4pairIKiS1_IiiEENS_10_Select1stESt4hashIiENS_18_Mod_range_hashingENS_20_Default_ranged_hashELb0EE13_M_store_codeEPNS_10_Hash_nodeIS4_Lb0EEEj
	subl	$8, %esp
	movl	-60(%ebp), %eax
	movl	16(%ebp), %edx
	movl	%edx, 4(%esp)
	movl	8(%ebp), %edx
	movl	%edx, (%esp)
	movl	%eax, %ecx
	call	__ZNSt10_HashtableIiSt4pairIKiS0_IiiEESaIS3_ENSt8__detail10_Select1stESt8equal_toIiESt4hashIiENS5_18_Mod_range_hashingENS5_20_Default_ranged_hashENS5_20_Prime_rehash_policyENS5_17_Hashtable_traitsILb0ELb0ELb1EEEE22_M_insert_bucket_beginEjPNS5_10_Hash_nodeIS3_Lb0EEE
	subl	$8, %esp
	movl	-60(%ebp), %eax
	movl	12(%eax), %eax
	leal	1(%eax), %edx
	movl	-60(%ebp), %eax
	movl	%edx, 12(%eax)
	leal	-32(%ebp), %eax
	movl	16(%ebp), %edx
	movl	%edx, (%esp)
	movl	%eax, %ecx
	call	__ZNSt8__detail14_Node_iteratorISt4pairIKiS1_IiiEELb0ELb0EEC1EPNS_10_Hash_nodeIS4_Lb0EEE
	subl	$4, %esp
	movl	-32(%ebp), %eax
	movl	%eax, -116(%ebp)
	jmp	L259
L256:
	leal	24(%ebp), %ebp
	movl	-104(%ebp), %edx
	movl	-108(%ebp), %eax
	testl	%eax, %eax
	je	L257
	subl	$1, %eax
	testl	%eax, %eax
	je	L258
	subl	$1, %eax
	ud2
L257:
	movl	%edx, %eax
	movl	%eax, (%esp)
	call	___cxa_begin_catch
	movl	-60(%ebp), %eax
	movl	16(%ebp), %edx
	movl	%edx, (%esp)
	movl	$2, -108(%ebp)
	movl	%eax, %ecx
	call	__ZNSt8__detail16_Hashtable_allocISaINS_10_Hash_nodeISt4pairIKiS2_IiiEELb0EEEEE18_M_deallocate_nodeEPS6_
	subl	$4, %esp
	call	___cxa_rethrow
L258:
	movl	%edx, -116(%ebp)
	movl	$0, -108(%ebp)
	call	___cxa_end_catch
	movl	-116(%ebp), %eax
	movl	%eax, (%esp)
	movl	$-1, -108(%ebp)
	call	__Unwind_SjLj_Resume
L259:
	leal	-112(%ebp), %eax
	movl	%eax, (%esp)
	call	__Unwind_SjLj_Unregister
	movl	-116(%ebp), %eax
	leal	-12(%ebp), %esp
	popl	%ebx
	popl	%esi
	popl	%edi
	popl	%ebp
	ret	$12
	.section	.gcc_except_table,"w"
	.align 4
LLSDA12491:
	.byte	0xff
	.byte	0
	.uleb128 LLSDATT12491-LLSDATTD12491
LLSDATTD12491:
	.byte	0x1
	.uleb128 LLSDACSE12491-LLSDACSB12491
LLSDACSB12491:
	.uleb128 0
	.uleb128 0x1
	.uleb128 0x1
	.uleb128 0
LLSDACSE12491:
	.byte	0x1
	.byte	0
	.align 4
	.long	0
LLSDATT12491:
	.section	.text$_ZNSt10_HashtableIiSt4pairIKiS0_IiiEESaIS3_ENSt8__detail10_Select1stESt8equal_toIiESt4hashIiENS5_18_Mod_range_hashingENS5_20_Default_ranged_hashENS5_20_Prime_rehash_policyENS5_17_Hashtable_traitsILb0ELb0ELb1EEEE21_M_insert_unique_nodeEjjPNS5_10_Hash_nodeIS3_Lb0EEE,"x"
	.linkonce discard
	.section	.text$_ZNKSt8__detail14_Node_iteratorISt4pairIKiS1_IiiEELb0ELb0EEptEv,"x"
	.linkonce discard
	.align 2
	.globl	__ZNKSt8__detail14_Node_iteratorISt4pairIKiS1_IiiEELb0ELb0EEptEv
	.def	__ZNKSt8__detail14_Node_iteratorISt4pairIKiS1_IiiEELb0ELb0EEptEv;	.scl	2;	.type	32;	.endef
__ZNKSt8__detail14_Node_iteratorISt4pairIKiS1_IiiEELb0ELb0EEptEv:
	pushl	%ebp
	movl	%esp, %ebp
	subl	$24, %esp
	movl	%ecx, -12(%ebp)
	movl	-12(%ebp), %eax
	movl	(%eax), %eax
	movl	%eax, %ecx
	call	__ZNSt8__detail21_Hash_node_value_baseISt4pairIKiS1_IiiEEE9_M_valptrEv
	leave
	ret
	.section	.text$_ZNSt8__detail21_Hash_node_value_baseISt4pairIKiS1_IiiEEE4_M_vEv,"x"
	.linkonce discard
	.align 2
	.globl	__ZNSt8__detail21_Hash_node_value_baseISt4pairIKiS1_IiiEEE4_M_vEv
	.def	__ZNSt8__detail21_Hash_node_value_baseISt4pairIKiS1_IiiEEE4_M_vEv;	.scl	2;	.type	32;	.endef
__ZNSt8__detail21_Hash_node_value_baseISt4pairIKiS1_IiiEEE4_M_vEv:
	pushl	%ebp
	movl	%esp, %ebp
	subl	$24, %esp
	movl	%ecx, -12(%ebp)
	movl	-12(%ebp), %eax
	movl	%eax, %ecx
	call	__ZNSt8__detail21_Hash_node_value_baseISt4pairIKiS1_IiiEEE9_M_valptrEv
	leave
	ret
	.section	.text$_ZNSt7__cxx1112basic_stringIcSt11char_traitsIcESaIcEE16_M_construct_auxIPcEEvT_S7_St12__false_type,"x"
	.linkonce discard
	.align 2
	.globl	__ZNSt7__cxx1112basic_stringIcSt11char_traitsIcESaIcEE16_M_construct_auxIPcEEvT_S7_St12__false_type
	.def	__ZNSt7__cxx1112basic_stringIcSt11char_traitsIcESaIcEE16_M_construct_auxIPcEEvT_S7_St12__false_type;	.scl	2;	.type	32;	.endef
__ZNSt7__cxx1112basic_stringIcSt11char_traitsIcESaIcEE16_M_construct_auxIPcEEvT_S7_St12__false_type:
	pushl	%ebp
	movl	%esp, %ebp
	subl	$56, %esp
	movl	%ecx, -28(%ebp)
	movl	-28(%ebp), %eax
	movb	%dl, 8(%esp)
	movl	12(%ebp), %edx
	movl	%edx, 4(%esp)
	movl	8(%ebp), %edx
	movl	%edx, (%esp)
	movl	%eax, %ecx
	call	__ZNSt7__cxx1112basic_stringIcSt11char_traitsIcESaIcEE12_M_constructIPcEEvT_S7_St20forward_iterator_tag
	subl	$12, %esp
	nop
	leave
	ret	$12
	.section	.text$_ZNSaIiEC2ERKS_,"x"
	.linkonce discard
	.align 2
	.globl	__ZNSaIiEC2ERKS_
	.def	__ZNSaIiEC2ERKS_;	.scl	2;	.type	32;	.endef
__ZNSaIiEC2ERKS_:
	pushl	%ebp
	movl	%esp, %ebp
	subl	$40, %esp
	movl	%ecx, -12(%ebp)
	movl	-12(%ebp), %eax
	movl	8(%ebp), %edx
	movl	%edx, (%esp)
	movl	%eax, %ecx
	call	__ZN9__gnu_cxx13new_allocatorIiEC2ERKS1_
	subl	$4, %esp
	nop
	leave
	ret	$4
	.section	.text$_ZNSt12_Vector_baseIiSaIiEE11_M_allocateEj,"x"
	.linkonce discard
	.align 2
	.globl	__ZNSt12_Vector_baseIiSaIiEE11_M_allocateEj
	.def	__ZNSt12_Vector_baseIiSaIiEE11_M_allocateEj;	.scl	2;	.type	32;	.endef
__ZNSt12_Vector_baseIiSaIiEE11_M_allocateEj:
	pushl	%ebp
	movl	%esp, %ebp
	subl	$40, %esp
	movl	%ecx, -12(%ebp)
	cmpl	$0, 8(%ebp)
	je	L267
	movl	-12(%ebp), %eax
	movl	8(%ebp), %edx
	movl	%edx, 4(%esp)
	movl	%eax, (%esp)
	call	__ZNSt16allocator_traitsISaIiEE8allocateERS0_j
	jmp	L269
L267:
	movl	$0, %eax
L269:
	leave
	ret	$4
	.section	.text$_ZNSt16allocator_traitsISaIiEE10deallocateERS0_Pij,"x"
	.linkonce discard
	.globl	__ZNSt16allocator_traitsISaIiEE10deallocateERS0_Pij
	.def	__ZNSt16allocator_traitsISaIiEE10deallocateERS0_Pij;	.scl	2;	.type	32;	.endef
__ZNSt16allocator_traitsISaIiEE10deallocateERS0_Pij:
	pushl	%ebp
	movl	%esp, %ebp
	subl	$24, %esp
	movl	16(%ebp), %eax
	movl	%eax, 4(%esp)
	movl	12(%ebp), %eax
	movl	%eax, (%esp)
	movl	8(%ebp), %ecx
	call	__ZN9__gnu_cxx13new_allocatorIiE10deallocateEPij
	subl	$8, %esp
	nop
	leave
	ret
	.section	.text$_ZSt25__uninitialized_default_nIPijET_S1_T0_,"x"
	.linkonce discard
	.globl	__ZSt25__uninitialized_default_nIPijET_S1_T0_
	.def	__ZSt25__uninitialized_default_nIPijET_S1_T0_;	.scl	2;	.type	32;	.endef
__ZSt25__uninitialized_default_nIPijET_S1_T0_:
	pushl	%ebp
	movl	%esp, %ebp
	subl	$40, %esp
	movb	$1, -9(%ebp)
	movl	12(%ebp), %eax
	movl	%eax, 4(%esp)
	movl	8(%ebp), %eax
	movl	%eax, (%esp)
	call	__ZNSt27__uninitialized_default_n_1ILb1EE18__uninit_default_nIPijEET_S3_T0_
	leave
	ret
	.section	.text$_ZNSt12_Destroy_auxILb1EE9__destroyIPiEEvT_S3_,"x"
	.linkonce discard
	.globl	__ZNSt12_Destroy_auxILb1EE9__destroyIPiEEvT_S3_
	.def	__ZNSt12_Destroy_auxILb1EE9__destroyIPiEEvT_S3_;	.scl	2;	.type	32;	.endef
__ZNSt12_Destroy_auxILb1EE9__destroyIPiEEvT_S3_:
	pushl	%ebp
	movl	%esp, %ebp
	nop
	popl	%ebp
	ret
	.section	.text$_ZNK9__gnu_cxx17__normal_iteratorIPcNSt7__cxx1112basic_stringIcSt11char_traitsIcESaIcEEEEdeEv,"x"
	.linkonce discard
	.align 2
	.globl	__ZNK9__gnu_cxx17__normal_iteratorIPcNSt7__cxx1112basic_stringIcSt11char_traitsIcESaIcEEEEdeEv
	.def	__ZNK9__gnu_cxx17__normal_iteratorIPcNSt7__cxx1112basic_stringIcSt11char_traitsIcESaIcEEEEdeEv;	.scl	2;	.type	32;	.endef
__ZNK9__gnu_cxx17__normal_iteratorIPcNSt7__cxx1112basic_stringIcSt11char_traitsIcESaIcEEEEdeEv:
	pushl	%ebp
	movl	%esp, %ebp
	subl	$4, %esp
	movl	%ecx, -4(%ebp)
	movl	-4(%ebp), %eax
	movl	(%eax), %eax
	leave
	ret
	.section	.text$_ZSt4moveIRcEONSt16remove_referenceIT_E4typeEOS2_,"x"
	.linkonce discard
	.globl	__ZSt4moveIRcEONSt16remove_referenceIT_E4typeEOS2_
	.def	__ZSt4moveIRcEONSt16remove_referenceIT_E4typeEOS2_;	.scl	2;	.type	32;	.endef
__ZSt4moveIRcEONSt16remove_referenceIT_E4typeEOS2_:
	pushl	%ebp
	movl	%esp, %ebp
	movl	8(%ebp), %eax
	popl	%ebp
	ret
	.section	.text$_ZSt4swapIcEvRT_S1_,"x"
	.linkonce discard
	.globl	__ZSt4swapIcEvRT_S1_
	.def	__ZSt4swapIcEvRT_S1_;	.scl	2;	.type	32;	.endef
__ZSt4swapIcEvRT_S1_:
	pushl	%ebp
	movl	%esp, %ebp
	subl	$20, %esp
	movl	8(%ebp), %eax
	movl	%eax, (%esp)
	call	__ZSt4moveIRcEONSt16remove_referenceIT_E4typeEOS2_
	movzbl	(%eax), %eax
	movb	%al, -1(%ebp)
	movl	12(%ebp), %eax
	movl	%eax, (%esp)
	call	__ZSt4moveIRcEONSt16remove_referenceIT_E4typeEOS2_
	movzbl	(%eax), %edx
	movl	8(%ebp), %eax
	movb	%dl, (%eax)
	leal	-1(%ebp), %eax
	movl	%eax, (%esp)
	call	__ZSt4moveIRcEONSt16remove_referenceIT_E4typeEOS2_
	movzbl	(%eax), %edx
	movl	12(%ebp), %eax
	movb	%dl, (%eax)
	nop
	leave
	ret
	.section	.text$_ZNKSt8__detail10_Hash_nodeISt4pairIKiS1_IiiEELb0EE7_M_nextEv,"x"
	.linkonce discard
	.align 2
	.globl	__ZNKSt8__detail10_Hash_nodeISt4pairIKiS1_IiiEELb0EE7_M_nextEv
	.def	__ZNKSt8__detail10_Hash_nodeISt4pairIKiS1_IiiEELb0EE7_M_nextEv;	.scl	2;	.type	32;	.endef
__ZNKSt8__detail10_Hash_nodeISt4pairIKiS1_IiiEELb0EE7_M_nextEv:
	pushl	%ebp
	movl	%esp, %ebp
	subl	$4, %esp
	movl	%ecx, -4(%ebp)
	movl	-4(%ebp), %eax
	movl	(%eax), %eax
	leave
	ret
	.section	.text$_ZNSt8__detail16_Hashtable_allocISaINS_10_Hash_nodeISt4pairIKiS2_IiiEELb0EEEEE18_M_deallocate_nodeEPS6_,"x"
	.linkonce discard
	.align 2
	.globl	__ZNSt8__detail16_Hashtable_allocISaINS_10_Hash_nodeISt4pairIKiS2_IiiEELb0EEEEE18_M_deallocate_nodeEPS6_
	.def	__ZNSt8__detail16_Hashtable_allocISaINS_10_Hash_nodeISt4pairIKiS2_IiiEELb0EEEEE18_M_deallocate_nodeEPS6_;	.scl	2;	.type	32;	.endef
__ZNSt8__detail16_Hashtable_allocISaINS_10_Hash_nodeISt4pairIKiS2_IiiEELb0EEEEE18_M_deallocate_nodeEPS6_:
	pushl	%ebp
	movl	%esp, %ebp
	pushl	%edi
	pushl	%esi
	pushl	%ebx
	subl	$108, %esp
	movl	%ecx, -44(%ebp)
	movl	$___gxx_personality_sj0, -72(%ebp)
	movl	$LLSDA12599, -68(%ebp)
	leal	-64(%ebp), %eax
	leal	-24(%ebp), %ebx
	movl	%ebx, (%eax)
	movl	$L283, %edx
	movl	%edx, 4(%eax)
	movl	%esp, 8(%eax)
	leal	-96(%ebp), %eax
	movl	%eax, (%esp)
	call	__Unwind_SjLj_Register
	movl	8(%ebp), %eax
	movl	%eax, (%esp)
	call	__ZNSt14pointer_traitsIPNSt8__detail10_Hash_nodeISt4pairIKiS2_IiiEELb0EEEE10pointer_toERS6_
	movl	%eax, -28(%ebp)
	movl	-44(%ebp), %eax
	movl	$-1, -92(%ebp)
	movl	%eax, %ecx
	call	__ZNSt8__detail16_Hashtable_allocISaINS_10_Hash_nodeISt4pairIKiS2_IiiEELb0EEEEE17_M_node_allocatorEv
	movl	%eax, %edx
	leal	-29(%ebp), %eax
	movl	%edx, (%esp)
	movl	%eax, %ecx
	call	__ZNSaISt4pairIKiS_IiiEEEC1INSt8__detail10_Hash_nodeIS2_Lb0EEEEERKSaIT_E
	subl	$4, %esp
	movl	8(%ebp), %eax
	movl	%eax, %ecx
	call	__ZNSt8__detail21_Hash_node_value_baseISt4pairIKiS1_IiiEEE9_M_valptrEv
	movl	%eax, 4(%esp)
	leal	-29(%ebp), %eax
	movl	%eax, (%esp)
	movl	$1, -92(%ebp)
	call	__ZNSt16allocator_traitsISaISt4pairIKiS0_IiiEEEE7destroyIS3_EEvRS4_PT_
	movl	-44(%ebp), %eax
	movl	%eax, %ecx
	call	__ZNSt8__detail16_Hashtable_allocISaINS_10_Hash_nodeISt4pairIKiS2_IiiEELb0EEEEE17_M_node_allocatorEv
	movl	%eax, %edx
	movl	$1, 8(%esp)
	movl	-28(%ebp), %eax
	movl	%eax, 4(%esp)
	movl	%edx, (%esp)
	call	__ZNSt16allocator_traitsISaINSt8__detail10_Hash_nodeISt4pairIKiS2_IiiEELb0EEEEE10deallocateERS7_PS6_j
	leal	-29(%ebp), %eax
	movl	%eax, %ecx
	call	__ZNSaISt4pairIKiS_IiiEEED1Ev
	jmp	L285
L283:
	leal	24(%ebp), %ebp
	movl	-88(%ebp), %eax
	movl	%eax, -100(%ebp)
	leal	-29(%ebp), %eax
	movl	%eax, %ecx
	call	__ZNSaISt4pairIKiS_IiiEEED1Ev
	movl	-100(%ebp), %eax
	movl	%eax, (%esp)
	movl	$-1, -92(%ebp)
	call	__Unwind_SjLj_Resume
L285:
	leal	-96(%ebp), %eax
	movl	%eax, (%esp)
	call	__Unwind_SjLj_Unregister
	leal	-12(%ebp), %esp
	popl	%ebx
	popl	%esi
	popl	%edi
	popl	%ebp
	ret	$4
	.section	.gcc_except_table,"w"
LLSDA12599:
	.byte	0xff
	.byte	0xff
	.byte	0x1
	.uleb128 LLSDACSE12599-LLSDACSB12599
LLSDACSB12599:
	.uleb128 0
	.uleb128 0
LLSDACSE12599:
	.section	.text$_ZNSt8__detail16_Hashtable_allocISaINS_10_Hash_nodeISt4pairIKiS2_IiiEELb0EEEEE18_M_deallocate_nodeEPS6_,"x"
	.linkonce discard
	.section	.text$_ZNKSt10_HashtableIiSt4pairIKiS0_IiiEESaIS3_ENSt8__detail10_Select1stESt8equal_toIiESt4hashIiENS5_18_Mod_range_hashingENS5_20_Default_ranged_hashENS5_20_Prime_rehash_policyENS5_17_Hashtable_traitsILb0ELb0ELb1EEEE21_M_uses_single_bucketEPPNS5_15_Hash_node_baseE,"x"
	.linkonce discard
	.align 2
	.globl	__ZNKSt10_HashtableIiSt4pairIKiS0_IiiEESaIS3_ENSt8__detail10_Select1stESt8equal_toIiESt4hashIiENS5_18_Mod_range_hashingENS5_20_Default_ranged_hashENS5_20_Prime_rehash_policyENS5_17_Hashtable_traitsILb0ELb0ELb1EEEE21_M_uses_single_bucketEPPNS5_15_Hash_node_baseE
	.def	__ZNKSt10_HashtableIiSt4pairIKiS0_IiiEESaIS3_ENSt8__detail10_Select1stESt8equal_toIiESt4hashIiENS5_18_Mod_range_hashingENS5_20_Default_ranged_hashENS5_20_Prime_rehash_policyENS5_17_Hashtable_traitsILb0ELb0ELb1EEEE21_M_uses_single_bucketEPPNS5_15_Hash_node_baseE;	.scl	2;	.type	32;	.endef
__ZNKSt10_HashtableIiSt4pairIKiS0_IiiEESaIS3_ENSt8__detail10_Select1stESt8equal_toIiESt4hashIiENS5_18_Mod_range_hashingENS5_20_Default_ranged_hashENS5_20_Prime_rehash_policyENS5_17_Hashtable_traitsILb0ELb0ELb1EEEE21_M_uses_single_bucketEPPNS5_15_Hash_node_baseE:
	pushl	%ebp
	movl	%esp, %ebp
	subl	$4, %esp
	movl	%ecx, -4(%ebp)
	movl	-4(%ebp), %eax
	addl	$24, %eax
	cmpl	8(%ebp), %eax
	sete	%al
	movzbl	%al, %eax
	testl	%eax, %eax
	setne	%al
	leave
	ret	$4
	.section	.text$_ZNSt8__detail16_Hashtable_allocISaINS_10_Hash_nodeISt4pairIKiS2_IiiEELb0EEEEE21_M_deallocate_bucketsEPPNS_15_Hash_node_baseEj,"x"
	.linkonce discard
	.align 2
	.globl	__ZNSt8__detail16_Hashtable_allocISaINS_10_Hash_nodeISt4pairIKiS2_IiiEELb0EEEEE21_M_deallocate_bucketsEPPNS_15_Hash_node_baseEj
	.def	__ZNSt8__detail16_Hashtable_allocISaINS_10_Hash_nodeISt4pairIKiS2_IiiEELb0EEEEE21_M_deallocate_bucketsEPPNS_15_Hash_node_baseEj;	.scl	2;	.type	32;	.endef
__ZNSt8__detail16_Hashtable_allocISaINS_10_Hash_nodeISt4pairIKiS2_IiiEELb0EEEEE21_M_deallocate_bucketsEPPNS_15_Hash_node_baseEj:
	pushl	%ebp
	movl	%esp, %ebp
	pushl	%edi
	pushl	%esi
	pushl	%ebx
	subl	$108, %esp
	movl	%ecx, -44(%ebp)
	movl	$___gxx_personality_sj0, -72(%ebp)
	movl	$LLSDA12601, -68(%ebp)
	leal	-64(%ebp), %eax
	leal	-24(%ebp), %ebx
	movl	%ebx, (%eax)
	movl	$L290, %edx
	movl	%edx, 4(%eax)
	movl	%esp, 8(%eax)
	leal	-96(%ebp), %eax
	movl	%eax, (%esp)
	call	__Unwind_SjLj_Register
	movl	8(%ebp), %eax
	movl	%eax, (%esp)
	call	__ZNSt14pointer_traitsIPPNSt8__detail15_Hash_node_baseEE10pointer_toERS2_
	movl	%eax, -28(%ebp)
	movl	-44(%ebp), %eax
	movl	$-1, -92(%ebp)
	movl	%eax, %ecx
	call	__ZNSt8__detail16_Hashtable_allocISaINS_10_Hash_nodeISt4pairIKiS2_IiiEELb0EEEEE17_M_node_allocatorEv
	movl	%eax, %edx
	leal	-29(%ebp), %eax
	movl	%edx, (%esp)
	movl	%eax, %ecx
	call	__ZNSaIPNSt8__detail15_Hash_node_baseEEC1INS_10_Hash_nodeISt4pairIKiS5_IiiEELb0EEEEERKSaIT_E
	subl	$4, %esp
	movl	12(%ebp), %eax
	movl	%eax, 8(%esp)
	movl	-28(%ebp), %eax
	movl	%eax, 4(%esp)
	leal	-29(%ebp), %eax
	movl	%eax, (%esp)
	movl	$1, -92(%ebp)
	call	__ZNSt16allocator_traitsISaIPNSt8__detail15_Hash_node_baseEEE10deallocateERS3_PS2_j
	leal	-29(%ebp), %eax
	movl	%eax, %ecx
	call	__ZNSaIPNSt8__detail15_Hash_node_baseEED1Ev
	jmp	L292
L290:
	leal	24(%ebp), %ebp
	movl	-88(%ebp), %eax
	movl	%eax, -100(%ebp)
	leal	-29(%ebp), %eax
	movl	%eax, %ecx
	call	__ZNSaIPNSt8__detail15_Hash_node_baseEED1Ev
	movl	-100(%ebp), %eax
	movl	%eax, (%esp)
	movl	$-1, -92(%ebp)
	call	__Unwind_SjLj_Resume
L292:
	leal	-96(%ebp), %eax
	movl	%eax, (%esp)
	call	__Unwind_SjLj_Unregister
	leal	-12(%ebp), %esp
	popl	%ebx
	popl	%esi
	popl	%edi
	popl	%ebp
	ret	$8
	.section	.gcc_except_table,"w"
LLSDA12601:
	.byte	0xff
	.byte	0xff
	.byte	0x1
	.uleb128 LLSDACSE12601-LLSDACSB12601
LLSDACSB12601:
	.uleb128 0
	.uleb128 0
LLSDACSE12601:
	.section	.text$_ZNSt8__detail16_Hashtable_allocISaINS_10_Hash_nodeISt4pairIKiS2_IiiEELb0EEEEE21_M_deallocate_bucketsEPPNS_15_Hash_node_baseEj,"x"
	.linkonce discard
	.section	.text$_ZNKSt8__detail15_Hash_code_baseIiSt4pairIKiS1_IiiEENS_10_Select1stESt4hashIiENS_18_Mod_range_hashingENS_20_Default_ranged_hashELb0EE5_M_h1Ev,"x"
	.linkonce discard
	.align 2
	.globl	__ZNKSt8__detail15_Hash_code_baseIiSt4pairIKiS1_IiiEENS_10_Select1stESt4hashIiENS_18_Mod_range_hashingENS_20_Default_ranged_hashELb0EE5_M_h1Ev
	.def	__ZNKSt8__detail15_Hash_code_baseIiSt4pairIKiS1_IiiEENS_10_Select1stESt4hashIiENS_18_Mod_range_hashingENS_20_Default_ranged_hashELb0EE5_M_h1Ev;	.scl	2;	.type	32;	.endef
__ZNKSt8__detail15_Hash_code_baseIiSt4pairIKiS1_IiiEENS_10_Select1stESt4hashIiENS_18_Mod_range_hashingENS_20_Default_ranged_hashELb0EE5_M_h1Ev:
	pushl	%ebp
	movl	%esp, %ebp
	subl	$40, %esp
	movl	%ecx, -12(%ebp)
	movl	-12(%ebp), %eax
	movl	%eax, (%esp)
	call	__ZNSt8__detail21_Hashtable_ebo_helperILi1ESt4hashIiELb1EE7_S_cgetERKS3_
	leave
	ret
	.section	.text$_ZNKSt8__detail15_Hash_code_baseIiSt4pairIKiS1_IiiEENS_10_Select1stESt4hashIiENS_18_Mod_range_hashingENS_20_Default_ranged_hashELb0EE15_M_bucket_indexERS2_jj,"x"
	.linkonce discard
	.align 2
	.globl	__ZNKSt8__detail15_Hash_code_baseIiSt4pairIKiS1_IiiEENS_10_Select1stESt4hashIiENS_18_Mod_range_hashingENS_20_Default_ranged_hashELb0EE15_M_bucket_indexERS2_jj
	.def	__ZNKSt8__detail15_Hash_code_baseIiSt4pairIKiS1_IiiEENS_10_Select1stESt4hashIiENS_18_Mod_range_hashingENS_20_Default_ranged_hashELb0EE15_M_bucket_indexERS2_jj;	.scl	2;	.type	32;	.endef
__ZNKSt8__detail15_Hash_code_baseIiSt4pairIKiS1_IiiEENS_10_Select1stESt4hashIiENS_18_Mod_range_hashingENS_20_Default_ranged_hashELb0EE15_M_bucket_indexERS2_jj:
	pushl	%ebp
	movl	%esp, %ebp
	subl	$40, %esp
	movl	%ecx, -12(%ebp)
	movl	-12(%ebp), %eax
	movl	%eax, %ecx
	call	__ZNKSt8__detail15_Hash_code_baseIiSt4pairIKiS1_IiiEENS_10_Select1stESt4hashIiENS_18_Mod_range_hashingENS_20_Default_ranged_hashELb0EE5_M_h2Ev
	movl	%eax, %edx
	movl	16(%ebp), %eax
	movl	%eax, 4(%esp)
	movl	12(%ebp), %eax
	movl	%eax, (%esp)
	movl	%edx, %ecx
	call	__ZNKSt8__detail18_Mod_range_hashingclEjj
	subl	$8, %esp
	leave
	ret	$12
	.section	.text$_ZNKSt10_HashtableIiSt4pairIKiS0_IiiEESaIS3_ENSt8__detail10_Select1stESt8equal_toIiESt4hashIiENS5_18_Mod_range_hashingENS5_20_Default_ranged_hashENS5_20_Prime_rehash_policyENS5_17_Hashtable_traitsILb0ELb0ELb1EEEE19_M_find_before_nodeEjRS1_j,"x"
	.linkonce discard
	.align 2
	.globl	__ZNKSt10_HashtableIiSt4pairIKiS0_IiiEESaIS3_ENSt8__detail10_Select1stESt8equal_toIiESt4hashIiENS5_18_Mod_range_hashingENS5_20_Default_ranged_hashENS5_20_Prime_rehash_policyENS5_17_Hashtable_traitsILb0ELb0ELb1EEEE19_M_find_before_nodeEjRS1_j
	.def	__ZNKSt10_HashtableIiSt4pairIKiS0_IiiEESaIS3_ENSt8__detail10_Select1stESt8equal_toIiESt4hashIiENS5_18_Mod_range_hashingENS5_20_Default_ranged_hashENS5_20_Prime_rehash_policyENS5_17_Hashtable_traitsILb0ELb0ELb1EEEE19_M_find_before_nodeEjRS1_j;	.scl	2;	.type	32;	.endef
__ZNKSt10_HashtableIiSt4pairIKiS0_IiiEESaIS3_ENSt8__detail10_Select1stESt8equal_toIiESt4hashIiENS5_18_Mod_range_hashingENS5_20_Default_ranged_hashENS5_20_Prime_rehash_policyENS5_17_Hashtable_traitsILb0ELb0ELb1EEEE19_M_find_before_nodeEjRS1_j:
	pushl	%ebp
	movl	%esp, %ebp
	subl	$56, %esp
	movl	%ecx, -28(%ebp)
	movl	-28(%ebp), %eax
	movl	(%eax), %eax
	movl	8(%ebp), %edx
	sall	$2, %edx
	addl	%edx, %eax
	movl	(%eax), %eax
	movl	%eax, -12(%ebp)
	cmpl	$0, -12(%ebp)
	jne	L298
	movl	$0, %eax
	jmp	L299
L298:
	movl	-12(%ebp), %eax
	movl	(%eax), %eax
	movl	%eax, -16(%ebp)
L306:
	movl	-28(%ebp), %eax
	movl	-16(%ebp), %edx
	movl	%edx, 8(%esp)
	movl	16(%ebp), %edx
	movl	%edx, 4(%esp)
	movl	12(%ebp), %edx
	movl	%edx, (%esp)
	movl	%eax, %ecx
	call	__ZNKSt8__detail15_Hashtable_baseIiSt4pairIKiS1_IiiEENS_10_Select1stESt8equal_toIiESt4hashIiENS_18_Mod_range_hashingENS_20_Default_ranged_hashENS_17_Hashtable_traitsILb0ELb0ELb1EEEE9_M_equalsERS2_jPNS_10_Hash_nodeIS4_Lb0EEE
	subl	$12, %esp
	testb	%al, %al
	je	L300
	movl	-12(%ebp), %eax
	jmp	L299
L300:
	movl	-16(%ebp), %eax
	movl	(%eax), %eax
	testl	%eax, %eax
	je	L301
	movl	-16(%ebp), %eax
	movl	%eax, %ecx
	call	__ZNKSt8__detail10_Hash_nodeISt4pairIKiS1_IiiEELb0EE7_M_nextEv
	movl	%eax, %edx
	movl	-28(%ebp), %eax
	movl	%edx, (%esp)
	movl	%eax, %ecx
	call	__ZNKSt10_HashtableIiSt4pairIKiS0_IiiEESaIS3_ENSt8__detail10_Select1stESt8equal_toIiESt4hashIiENS5_18_Mod_range_hashingENS5_20_Default_ranged_hashENS5_20_Prime_rehash_policyENS5_17_Hashtable_traitsILb0ELb0ELb1EEEE15_M_bucket_indexEPNS5_10_Hash_nodeIS3_Lb0EEE
	subl	$4, %esp
	cmpl	8(%ebp), %eax
	je	L302
L301:
	movl	$1, %eax
	jmp	L303
L302:
	movl	$0, %eax
L303:
	testb	%al, %al
	jne	L308
	movl	-16(%ebp), %eax
	movl	%eax, -12(%ebp)
	movl	-16(%ebp), %eax
	movl	%eax, %ecx
	call	__ZNKSt8__detail10_Hash_nodeISt4pairIKiS1_IiiEELb0EE7_M_nextEv
	movl	%eax, -16(%ebp)
	jmp	L306
L308:
	nop
	movl	$0, %eax
L299:
	leave
	ret	$12
	.section	.text$_ZNSt8__detail16_Hashtable_allocISaINS_10_Hash_nodeISt4pairIKiS2_IiiEELb0EEEEE17_M_node_allocatorEv,"x"
	.linkonce discard
	.align 2
	.globl	__ZNSt8__detail16_Hashtable_allocISaINS_10_Hash_nodeISt4pairIKiS2_IiiEELb0EEEEE17_M_node_allocatorEv
	.def	__ZNSt8__detail16_Hashtable_allocISaINS_10_Hash_nodeISt4pairIKiS2_IiiEELb0EEEEE17_M_node_allocatorEv;	.scl	2;	.type	32;	.endef
__ZNSt8__detail16_Hashtable_allocISaINS_10_Hash_nodeISt4pairIKiS2_IiiEELb0EEEEE17_M_node_allocatorEv:
	pushl	%ebp
	movl	%esp, %ebp
	subl	$40, %esp
	movl	%ecx, -12(%ebp)
	movl	-12(%ebp), %eax
	movl	%eax, (%esp)
	call	__ZNSt8__detail21_Hashtable_ebo_helperILi0ESaINS_10_Hash_nodeISt4pairIKiS2_IiiEELb0EEEELb1EE6_S_getERS8_
	leave
	ret
	.section	.text$_ZNSt16allocator_traitsISaINSt8__detail10_Hash_nodeISt4pairIKiS2_IiiEELb0EEEEE8allocateERS7_j,"x"
	.linkonce discard
	.globl	__ZNSt16allocator_traitsISaINSt8__detail10_Hash_nodeISt4pairIKiS2_IiiEELb0EEEEE8allocateERS7_j
	.def	__ZNSt16allocator_traitsISaINSt8__detail10_Hash_nodeISt4pairIKiS2_IiiEELb0EEEEE8allocateERS7_j;	.scl	2;	.type	32;	.endef
__ZNSt16allocator_traitsISaINSt8__detail10_Hash_nodeISt4pairIKiS2_IiiEELb0EEEEE8allocateERS7_j:
	pushl	%ebp
	movl	%esp, %ebp
	subl	$24, %esp
	movl	$0, 4(%esp)
	movl	12(%ebp), %eax
	movl	%eax, (%esp)
	movl	8(%ebp), %ecx
	call	__ZN9__gnu_cxx13new_allocatorINSt8__detail10_Hash_nodeISt4pairIKiS3_IiiEELb0EEEE8allocateEjPKv
	subl	$8, %esp
	leave
	ret
	.section	.text$_ZSt11__addressofINSt8__detail10_Hash_nodeISt4pairIKiS2_IiiEELb0EEEEPT_RS7_,"x"
	.linkonce discard
	.globl	__ZSt11__addressofINSt8__detail10_Hash_nodeISt4pairIKiS2_IiiEELb0EEEEPT_RS7_
	.def	__ZSt11__addressofINSt8__detail10_Hash_nodeISt4pairIKiS2_IiiEELb0EEEEPT_RS7_;	.scl	2;	.type	32;	.endef
__ZSt11__addressofINSt8__detail10_Hash_nodeISt4pairIKiS2_IiiEELb0EEEEPT_RS7_:
	pushl	%ebp
	movl	%esp, %ebp
	movl	8(%ebp), %eax
	popl	%ebp
	ret
	.section	.text$_ZNSaISt4pairIKiS_IiiEEEC1INSt8__detail10_Hash_nodeIS2_Lb0EEEEERKSaIT_E,"x"
	.linkonce discard
	.align 2
	.globl	__ZNSaISt4pairIKiS_IiiEEEC1INSt8__detail10_Hash_nodeIS2_Lb0EEEEERKSaIT_E
	.def	__ZNSaISt4pairIKiS_IiiEEEC1INSt8__detail10_Hash_nodeIS2_Lb0EEEEERKSaIT_E;	.scl	2;	.type	32;	.endef
__ZNSaISt4pairIKiS_IiiEEEC1INSt8__detail10_Hash_nodeIS2_Lb0EEEEERKSaIT_E:
	pushl	%ebp
	movl	%esp, %ebp
	subl	$24, %esp
	movl	%ecx, -12(%ebp)
	movl	-12(%ebp), %eax
	movl	%eax, %ecx
	call	__ZN9__gnu_cxx13new_allocatorISt4pairIKiS1_IiiEEEC2Ev
	nop
	leave
	ret	$4
	.section	.text$_ZNSaISt4pairIKiS_IiiEEED1Ev,"x"
	.linkonce discard
	.align 2
	.globl	__ZNSaISt4pairIKiS_IiiEEED1Ev
	.def	__ZNSaISt4pairIKiS_IiiEEED1Ev;	.scl	2;	.type	32;	.endef
__ZNSaISt4pairIKiS_IiiEEED1Ev:
	pushl	%ebp
	movl	%esp, %ebp
	subl	$24, %esp
	movl	%ecx, -12(%ebp)
	movl	-12(%ebp), %eax
	movl	%eax, %ecx
	call	__ZN9__gnu_cxx13new_allocatorISt4pairIKiS1_IiiEEED2Ev
	nop
	leave
	ret
	.section	.text$_ZNSt8__detail21_Hash_node_value_baseISt4pairIKiS1_IiiEEE9_M_valptrEv,"x"
	.linkonce discard
	.align 2
	.globl	__ZNSt8__detail21_Hash_node_value_baseISt4pairIKiS1_IiiEEE9_M_valptrEv
	.def	__ZNSt8__detail21_Hash_node_value_baseISt4pairIKiS1_IiiEEE9_M_valptrEv;	.scl	2;	.type	32;	.endef
__ZNSt8__detail21_Hash_node_value_baseISt4pairIKiS1_IiiEEE9_M_valptrEv:
	pushl	%ebp
	movl	%esp, %ebp
	subl	$24, %esp
	movl	%ecx, -12(%ebp)
	movl	-12(%ebp), %eax
	addl	$4, %eax
	movl	%eax, %ecx
	call	__ZN9__gnu_cxx16__aligned_bufferISt4pairIKiS1_IiiEEE6_M_ptrEv
	leave
	ret
	.section	.text$_ZNSt16allocator_traitsISaISt4pairIKiS0_IiiEEEE9constructIS3_JRKSt21piecewise_construct_tSt5tupleIJRS1_EESA_IJEEEEEDTcl12_S_constructfp_fp0_spcl7forwardIT0_Efp1_EEERS4_PT_DpOSE_,"x"
	.linkonce discard
	.globl	__ZNSt16allocator_traitsISaISt4pairIKiS0_IiiEEEE9constructIS3_JRKSt21piecewise_construct_tSt5tupleIJRS1_EESA_IJEEEEEDTcl12_S_constructfp_fp0_spcl7forwardIT0_Efp1_EEERS4_PT_DpOSE_
	.def	__ZNSt16allocator_traitsISaISt4pairIKiS0_IiiEEEE9constructIS3_JRKSt21piecewise_construct_tSt5tupleIJRS1_EESA_IJEEEEEDTcl12_S_constructfp_fp0_spcl7forwardIT0_Efp1_EEERS4_PT_DpOSE_;	.scl	2;	.type	32;	.endef
__ZNSt16allocator_traitsISaISt4pairIKiS0_IiiEEEE9constructIS3_JRKSt21piecewise_construct_tSt5tupleIJRS1_EESA_IJEEEEEDTcl12_S_constructfp_fp0_spcl7forwardIT0_Efp1_EEERS4_PT_DpOSE_:
	pushl	%ebp
	movl	%esp, %ebp
	pushl	%esi
	pushl	%ebx
	subl	$32, %esp
	movl	24(%ebp), %eax
	movl	%eax, (%esp)
	call	__ZSt7forwardISt5tupleIJEEEOT_RNSt16remove_referenceIS2_E4typeE
	movl	%eax, %esi
	movl	20(%ebp), %eax
	movl	%eax, (%esp)
	call	__ZSt7forwardISt5tupleIJRKiEEEOT_RNSt16remove_referenceIS4_E4typeE
	movl	%eax, %ebx
	movl	16(%ebp), %eax
	movl	%eax, (%esp)
	call	__ZSt7forwardIRKSt21piecewise_construct_tEOT_RNSt16remove_referenceIS3_E4typeE
	movl	%esi, 16(%esp)
	movl	%ebx, 12(%esp)
	movl	%eax, 8(%esp)
	movl	12(%ebp), %eax
	movl	%eax, 4(%esp)
	movl	8(%ebp), %eax
	movl	%eax, (%esp)
	call	__ZNSt16allocator_traitsISaISt4pairIKiS0_IiiEEEE12_S_constructIS3_JRKSt21piecewise_construct_tSt5tupleIJRS1_EESA_IJEEEEENSt9enable_ifIXsrSt6__and_IJNS5_18__construct_helperIT_JDpT0_EE4typeEEE5valueEvE4typeERS4_PSH_DpOSI_
	nop
	addl	$32, %esp
	popl	%ebx
	popl	%esi
	popl	%ebp
	ret
	.weak	__ZNSt16allocator_traitsISaISt4pairIKiS0_IiiEEEE9constructIS3_IRKSt21piecewise_construct_tSt5tupleIIRS1_EESA_IIEEEEEDTcl12_S_constructfp_fp0_spcl7forwardIT0_Efp1_EEERS4_PT_DpOSE_
	.def	__ZNSt16allocator_traitsISaISt4pairIKiS0_IiiEEEE9constructIS3_IRKSt21piecewise_construct_tSt5tupleIIRS1_EESA_IIEEEEEDTcl12_S_constructfp_fp0_spcl7forwardIT0_Efp1_EEERS4_PT_DpOSE_;	.scl	2;	.type	32;	.endef
	.set	__ZNSt16allocator_traitsISaISt4pairIKiS0_IiiEEEE9constructIS3_IRKSt21piecewise_construct_tSt5tupleIIRS1_EESA_IIEEEEEDTcl12_S_constructfp_fp0_spcl7forwardIT0_Efp1_EEERS4_PT_DpOSE_,__ZNSt16allocator_traitsISaISt4pairIKiS0_IiiEEEE9constructIS3_JRKSt21piecewise_construct_tSt5tupleIJRS1_EESA_IJEEEEEDTcl12_S_constructfp_fp0_spcl7forwardIT0_Efp1_EEERS4_PT_DpOSE_
	.section	.text$_ZNSt16allocator_traitsISaINSt8__detail10_Hash_nodeISt4pairIKiS2_IiiEELb0EEEEE10deallocateERS7_PS6_j,"x"
	.linkonce discard
	.globl	__ZNSt16allocator_traitsISaINSt8__detail10_Hash_nodeISt4pairIKiS2_IiiEELb0EEEEE10deallocateERS7_PS6_j
	.def	__ZNSt16allocator_traitsISaINSt8__detail10_Hash_nodeISt4pairIKiS2_IiiEELb0EEEEE10deallocateERS7_PS6_j;	.scl	2;	.type	32;	.endef
__ZNSt16allocator_traitsISaINSt8__detail10_Hash_nodeISt4pairIKiS2_IiiEELb0EEEEE10deallocateERS7_PS6_j:
	pushl	%ebp
	movl	%esp, %ebp
	subl	$24, %esp
	movl	16(%ebp), %eax
	movl	%eax, 4(%esp)
	movl	12(%ebp), %eax
	movl	%eax, (%esp)
	movl	8(%ebp), %ecx
	call	__ZN9__gnu_cxx13new_allocatorINSt8__detail10_Hash_nodeISt4pairIKiS3_IiiEELb0EEEE10deallocateEPS7_j
	subl	$8, %esp
	nop
	leave
	ret
	.section	.text$_ZNSt10_HashtableIiSt4pairIKiS0_IiiEESaIS3_ENSt8__detail10_Select1stESt8equal_toIiESt4hashIiENS5_18_Mod_range_hashingENS5_20_Default_ranged_hashENS5_20_Prime_rehash_policyENS5_17_Hashtable_traitsILb0ELb0ELb1EEEE9_M_rehashEjRKj,"x"
	.linkonce discard
	.align 2
	.globl	__ZNSt10_HashtableIiSt4pairIKiS0_IiiEESaIS3_ENSt8__detail10_Select1stESt8equal_toIiESt4hashIiENS5_18_Mod_range_hashingENS5_20_Default_ranged_hashENS5_20_Prime_rehash_policyENS5_17_Hashtable_traitsILb0ELb0ELb1EEEE9_M_rehashEjRKj
	.def	__ZNSt10_HashtableIiSt4pairIKiS0_IiiEESaIS3_ENSt8__detail10_Select1stESt8equal_toIiESt4hashIiENS5_18_Mod_range_hashingENS5_20_Default_ranged_hashENS5_20_Prime_rehash_policyENS5_17_Hashtable_traitsILb0ELb0ELb1EEEE9_M_rehashEjRKj;	.scl	2;	.type	32;	.endef
__ZNSt10_HashtableIiSt4pairIKiS0_IiiEESaIS3_ENSt8__detail10_Select1stESt8equal_toIiESt4hashIiENS5_18_Mod_range_hashingENS5_20_Default_ranged_hashENS5_20_Prime_rehash_policyENS5_17_Hashtable_traitsILb0ELb0ELb1EEEE9_M_rehashEjRKj:
	pushl	%ebp
	movl	%esp, %ebp
	pushl	%edi
	pushl	%esi
	pushl	%ebx
	subl	$108, %esp
	movl	%ecx, -44(%ebp)
	movl	$___gxx_personality_sj0, -72(%ebp)
	movl	$LLSDA12617, -68(%ebp)
	leal	-64(%ebp), %eax
	leal	-24(%ebp), %esi
	movl	%esi, (%eax)
	movl	$L324, %edx
	movl	%edx, 4(%eax)
	movl	%esp, 8(%eax)
	leal	-96(%ebp), %eax
	movl	%eax, (%esp)
	call	__Unwind_SjLj_Register
	movl	-44(%ebp), %eax
	movzbl	-100(%ebp), %ebx
	movb	%bl, 4(%esp)
	movl	8(%ebp), %edx
	movl	%edx, (%esp)
	movl	$1, -92(%ebp)
	movl	%eax, %ecx
	call	__ZNSt10_HashtableIiSt4pairIKiS0_IiiEESaIS3_ENSt8__detail10_Select1stESt8equal_toIiESt4hashIiENS5_18_Mod_range_hashingENS5_20_Default_ranged_hashENS5_20_Prime_rehash_policyENS5_17_Hashtable_traitsILb0ELb0ELb1EEEE13_M_rehash_auxEjSt17integral_constantIbLb1EE
	subl	$8, %esp
	jmp	L327
L324:
	leal	24(%ebp), %ebp
	movl	-88(%ebp), %edx
	movl	-92(%ebp), %eax
	testl	%eax, %eax
	je	L325
	subl	$1, %eax
	testl	%eax, %eax
	je	L326
	subl	$1, %eax
	ud2
L325:
	movl	%edx, %eax
	movl	%eax, (%esp)
	call	___cxa_begin_catch
	movl	12(%ebp), %eax
	movl	(%eax), %eax
	movl	-44(%ebp), %edx
	addl	$16, %edx
	movl	%eax, (%esp)
	movl	%edx, %ecx
	call	__ZNSt8__detail20_Prime_rehash_policy8_M_resetEj
	subl	$4, %esp
	movl	$2, -92(%ebp)
	call	___cxa_rethrow
L326:
	movl	%edx, -100(%ebp)
	movl	$0, -92(%ebp)
	call	___cxa_end_catch
	movl	-100(%ebp), %eax
	movl	%eax, (%esp)
	movl	$-1, -92(%ebp)
	call	__Unwind_SjLj_Resume
L327:
	leal	-96(%ebp), %eax
	movl	%eax, (%esp)
	call	__Unwind_SjLj_Unregister
	leal	-12(%ebp), %esp
	popl	%ebx
	popl	%esi
	popl	%edi
	popl	%ebp
	ret	$8
	.section	.gcc_except_table,"w"
	.align 4
LLSDA12617:
	.byte	0xff
	.byte	0
	.uleb128 LLSDATT12617-LLSDATTD12617
LLSDATTD12617:
	.byte	0x1
	.uleb128 LLSDACSE12617-LLSDACSB12617
LLSDACSB12617:
	.uleb128 0
	.uleb128 0x1
	.uleb128 0x1
	.uleb128 0
LLSDACSE12617:
	.byte	0x1
	.byte	0
	.align 4
	.long	0
LLSDATT12617:
	.section	.text$_ZNSt10_HashtableIiSt4pairIKiS0_IiiEESaIS3_ENSt8__detail10_Select1stESt8equal_toIiESt4hashIiENS5_18_Mod_range_hashingENS5_20_Default_ranged_hashENS5_20_Prime_rehash_policyENS5_17_Hashtable_traitsILb0ELb0ELb1EEEE9_M_rehashEjRKj,"x"
	.linkonce discard
	.section	.text$_ZNSt8__detail15_Hash_code_baseIiSt4pairIKiS1_IiiEENS_10_Select1stESt4hashIiENS_18_Mod_range_hashingENS_20_Default_ranged_hashELb0EE10_M_extractEv,"x"
	.linkonce discard
	.align 2
	.globl	__ZNSt8__detail15_Hash_code_baseIiSt4pairIKiS1_IiiEENS_10_Select1stESt4hashIiENS_18_Mod_range_hashingENS_20_Default_ranged_hashELb0EE10_M_extractEv
	.def	__ZNSt8__detail15_Hash_code_baseIiSt4pairIKiS1_IiiEENS_10_Select1stESt4hashIiENS_18_Mod_range_hashingENS_20_Default_ranged_hashELb0EE10_M_extractEv;	.scl	2;	.type	32;	.endef
__ZNSt8__detail15_Hash_code_baseIiSt4pairIKiS1_IiiEENS_10_Select1stESt4hashIiENS_18_Mod_range_hashingENS_20_Default_ranged_hashELb0EE10_M_extractEv:
	pushl	%ebp
	movl	%esp, %ebp
	subl	$40, %esp
	movl	%ecx, -12(%ebp)
	movl	-12(%ebp), %eax
	movl	%eax, (%esp)
	call	__ZNSt8__detail21_Hashtable_ebo_helperILi0ENS_10_Select1stELb1EE6_S_getERS2_
	leave
	ret
	.section	.text$_ZNKSt8__detail10_Select1stclIRSt4pairIKiS2_IiiEEEEDTcl3getILi0EEcl7forwardIT_Efp_EEEOS7_,"x"
	.linkonce discard
	.align 2
	.globl	__ZNKSt8__detail10_Select1stclIRSt4pairIKiS2_IiiEEEEDTcl3getILi0EEcl7forwardIT_Efp_EEEOS7_
	.def	__ZNKSt8__detail10_Select1stclIRSt4pairIKiS2_IiiEEEEDTcl3getILi0EEcl7forwardIT_Efp_EEEOS7_;	.scl	2;	.type	32;	.endef
__ZNKSt8__detail10_Select1stclIRSt4pairIKiS2_IiiEEEEDTcl3getILi0EEcl7forwardIT_Efp_EEEOS7_:
	pushl	%ebp
	movl	%esp, %ebp
	subl	$8, %esp
	movl	%ecx, -4(%ebp)
	movl	8(%ebp), %eax
	movl	%eax, (%esp)
	call	__ZSt7forwardIRSt4pairIKiS0_IiiEEEOT_RNSt16remove_referenceIS5_E4typeE
	movl	%eax, (%esp)
	call	__ZSt3getILj0EKiSt4pairIiiEERNSt13tuple_elementIXT_ES1_IT0_T1_EE4typeERS6_
	leave
	ret	$4
	.section	.text$_ZNKSt8__detail15_Hash_code_baseIiSt4pairIKiS1_IiiEENS_10_Select1stESt4hashIiENS_18_Mod_range_hashingENS_20_Default_ranged_hashELb0EE13_M_store_codeEPNS_10_Hash_nodeIS4_Lb0EEEj,"x"
	.linkonce discard
	.align 2
	.globl	__ZNKSt8__detail15_Hash_code_baseIiSt4pairIKiS1_IiiEENS_10_Select1stESt4hashIiENS_18_Mod_range_hashingENS_20_Default_ranged_hashELb0EE13_M_store_codeEPNS_10_Hash_nodeIS4_Lb0EEEj
	.def	__ZNKSt8__detail15_Hash_code_baseIiSt4pairIKiS1_IiiEENS_10_Select1stESt4hashIiENS_18_Mod_range_hashingENS_20_Default_ranged_hashELb0EE13_M_store_codeEPNS_10_Hash_nodeIS4_Lb0EEEj;	.scl	2;	.type	32;	.endef
__ZNKSt8__detail15_Hash_code_baseIiSt4pairIKiS1_IiiEENS_10_Select1stESt4hashIiENS_18_Mod_range_hashingENS_20_Default_ranged_hashELb0EE13_M_store_codeEPNS_10_Hash_nodeIS4_Lb0EEEj:
	pushl	%ebp
	movl	%esp, %ebp
	subl	$4, %esp
	movl	%ecx, -4(%ebp)
	nop
	leave
	ret	$8
	.section	.text$_ZNSt10_HashtableIiSt4pairIKiS0_IiiEESaIS3_ENSt8__detail10_Select1stESt8equal_toIiESt4hashIiENS5_18_Mod_range_hashingENS5_20_Default_ranged_hashENS5_20_Prime_rehash_policyENS5_17_Hashtable_traitsILb0ELb0ELb1EEEE22_M_insert_bucket_beginEjPNS5_10_Hash_nodeIS3_Lb0EEE,"x"
	.linkonce discard
	.align 2
	.globl	__ZNSt10_HashtableIiSt4pairIKiS0_IiiEESaIS3_ENSt8__detail10_Select1stESt8equal_toIiESt4hashIiENS5_18_Mod_range_hashingENS5_20_Default_ranged_hashENS5_20_Prime_rehash_policyENS5_17_Hashtable_traitsILb0ELb0ELb1EEEE22_M_insert_bucket_beginEjPNS5_10_Hash_nodeIS3_Lb0EEE
	.def	__ZNSt10_HashtableIiSt4pairIKiS0_IiiEESaIS3_ENSt8__detail10_Select1stESt8equal_toIiESt4hashIiENS5_18_Mod_range_hashingENS5_20_Default_ranged_hashENS5_20_Prime_rehash_policyENS5_17_Hashtable_traitsILb0ELb0ELb1EEEE22_M_insert_bucket_beginEjPNS5_10_Hash_nodeIS3_Lb0EEE;	.scl	2;	.type	32;	.endef
__ZNSt10_HashtableIiSt4pairIKiS0_IiiEESaIS3_ENSt8__detail10_Select1stESt8equal_toIiESt4hashIiENS5_18_Mod_range_hashingENS5_20_Default_ranged_hashENS5_20_Prime_rehash_policyENS5_17_Hashtable_traitsILb0ELb0ELb1EEEE22_M_insert_bucket_beginEjPNS5_10_Hash_nodeIS3_Lb0EEE:
	pushl	%ebp
	movl	%esp, %ebp
	pushl	%ebx
	subl	$36, %esp
	movl	%ecx, -12(%ebp)
	movl	-12(%ebp), %eax
	movl	(%eax), %eax
	movl	8(%ebp), %edx
	sall	$2, %edx
	addl	%edx, %eax
	movl	(%eax), %eax
	testl	%eax, %eax
	je	L334
	movl	-12(%ebp), %eax
	movl	(%eax), %eax
	movl	8(%ebp), %edx
	sall	$2, %edx
	addl	%edx, %eax
	movl	(%eax), %eax
	movl	(%eax), %edx
	movl	12(%ebp), %eax
	movl	%edx, (%eax)
	movl	-12(%ebp), %eax
	movl	(%eax), %eax
	movl	8(%ebp), %edx
	sall	$2, %edx
	addl	%edx, %eax
	movl	(%eax), %eax
	movl	12(%ebp), %edx
	movl	%edx, (%eax)
	jmp	L337
L334:
	movl	-12(%ebp), %eax
	movl	8(%eax), %edx
	movl	12(%ebp), %eax
	movl	%edx, (%eax)
	movl	-12(%ebp), %eax
	movl	12(%ebp), %edx
	movl	%edx, 8(%eax)
	movl	12(%ebp), %eax
	movl	(%eax), %eax
	testl	%eax, %eax
	je	L336
	movl	-12(%ebp), %eax
	movl	(%eax), %ebx
	movl	12(%ebp), %eax
	movl	%eax, %ecx
	call	__ZNKSt8__detail10_Hash_nodeISt4pairIKiS1_IiiEELb0EE7_M_nextEv
	movl	%eax, %edx
	movl	-12(%ebp), %eax
	movl	%edx, (%esp)
	movl	%eax, %ecx
	call	__ZNKSt10_HashtableIiSt4pairIKiS0_IiiEESaIS3_ENSt8__detail10_Select1stESt8equal_toIiESt4hashIiENS5_18_Mod_range_hashingENS5_20_Default_ranged_hashENS5_20_Prime_rehash_policyENS5_17_Hashtable_traitsILb0ELb0ELb1EEEE15_M_bucket_indexEPNS5_10_Hash_nodeIS3_Lb0EEE
	subl	$4, %esp
	sall	$2, %eax
	leal	(%ebx,%eax), %edx
	movl	12(%ebp), %eax
	movl	%eax, (%edx)
L336:
	movl	-12(%ebp), %eax
	movl	(%eax), %eax
	movl	8(%ebp), %edx
	sall	$2, %edx
	addl	%edx, %eax
	movl	-12(%ebp), %edx
	addl	$8, %edx
	movl	%edx, (%eax)
L337:
	nop
	movl	-4(%ebp), %ebx
	leave
	ret	$8
	.section	.text$_ZNSt8__detail14_Node_iteratorISt4pairIKiS1_IiiEELb0ELb0EEC1EPNS_10_Hash_nodeIS4_Lb0EEE,"x"
	.linkonce discard
	.align 2
	.globl	__ZNSt8__detail14_Node_iteratorISt4pairIKiS1_IiiEELb0ELb0EEC1EPNS_10_Hash_nodeIS4_Lb0EEE
	.def	__ZNSt8__detail14_Node_iteratorISt4pairIKiS1_IiiEELb0ELb0EEC1EPNS_10_Hash_nodeIS4_Lb0EEE;	.scl	2;	.type	32;	.endef
__ZNSt8__detail14_Node_iteratorISt4pairIKiS1_IiiEELb0ELb0EEC1EPNS_10_Hash_nodeIS4_Lb0EEE:
	pushl	%ebp
	movl	%esp, %ebp
	subl	$40, %esp
	movl	%ecx, -12(%ebp)
	movl	-12(%ebp), %eax
	movl	8(%ebp), %edx
	movl	%edx, (%esp)
	movl	%eax, %ecx
	call	__ZNSt8__detail19_Node_iterator_baseISt4pairIKiS1_IiiEELb0EEC2EPNS_10_Hash_nodeIS4_Lb0EEE
	subl	$4, %esp
	nop
	leave
	ret	$4
	.section .rdata,"dr"
	.align 4
LC5:
	.ascii "basic_string::_M_construct null not valid\0"
	.section	.text$_ZNSt7__cxx1112basic_stringIcSt11char_traitsIcESaIcEE12_M_constructIPcEEvT_S7_St20forward_iterator_tag,"x"
	.linkonce discard
	.align 2
	.globl	__ZNSt7__cxx1112basic_stringIcSt11char_traitsIcESaIcEE12_M_constructIPcEEvT_S7_St20forward_iterator_tag
	.def	__ZNSt7__cxx1112basic_stringIcSt11char_traitsIcESaIcEE12_M_constructIPcEEvT_S7_St20forward_iterator_tag;	.scl	2;	.type	32;	.endef
__ZNSt7__cxx1112basic_stringIcSt11char_traitsIcESaIcEE12_M_constructIPcEEvT_S7_St20forward_iterator_tag:
	pushl	%ebp
	movl	%esp, %ebp
	pushl	%edi
	pushl	%esi
	pushl	%ebx
	subl	$108, %esp
	movl	%ecx, -44(%ebp)
	movl	$___gxx_personality_sj0, -72(%ebp)
	movl	$LLSDA12625, -68(%ebp)
	leal	-64(%ebp), %eax
	leal	-24(%ebp), %ebx
	movl	%ebx, (%eax)
	movl	$L346, %edx
	movl	%edx, 4(%eax)
	movl	%esp, 8(%eax)
	leal	-96(%ebp), %eax
	movl	%eax, (%esp)
	call	__Unwind_SjLj_Register
	movl	8(%ebp), %eax
	movl	%eax, (%esp)
	call	__ZN9__gnu_cxx17__is_null_pointerIcEEbPT_
	testb	%al, %al
	je	L340
	movl	8(%ebp), %eax
	cmpl	12(%ebp), %eax
	je	L340
	movl	$1, %eax
	jmp	L341
L340:
	movl	$0, %eax
L341:
	testb	%al, %al
	je	L342
	movl	$LC5, (%esp)
	movl	$-1, -92(%ebp)
	call	__ZSt19__throw_logic_errorPKc
L342:
	movl	12(%ebp), %eax
	movl	%eax, 4(%esp)
	movl	8(%ebp), %eax
	movl	%eax, (%esp)
	movl	$-1, -92(%ebp)
	call	__ZSt8distanceIPcENSt15iterator_traitsIT_E15difference_typeES2_S2_
	movl	%eax, -28(%ebp)
	movl	-28(%ebp), %eax
	cmpl	$15, %eax
	jbe	L343
	movl	-44(%ebp), %eax
	movl	$0, 4(%esp)
	leal	-28(%ebp), %edx
	movl	%edx, (%esp)
	movl	%eax, %ecx
	call	__ZNSt7__cxx1112basic_stringIcSt11char_traitsIcESaIcEE9_M_createERjj
	subl	$8, %esp
	movl	%eax, %edx
	movl	-44(%ebp), %eax
	movl	%edx, (%esp)
	movl	%eax, %ecx
	call	__ZNSt7__cxx1112basic_stringIcSt11char_traitsIcESaIcEE7_M_dataEPc
	subl	$4, %esp
	movl	-28(%ebp), %edx
	movl	-44(%ebp), %eax
	movl	%edx, (%esp)
	movl	%eax, %ecx
	call	__ZNSt7__cxx1112basic_stringIcSt11char_traitsIcESaIcEE11_M_capacityEj
	subl	$4, %esp
L343:
	movl	-44(%ebp), %eax
	movl	$1, -92(%ebp)
	movl	%eax, %ecx
	call	__ZNKSt7__cxx1112basic_stringIcSt11char_traitsIcESaIcEE7_M_dataEv
	movl	%eax, %edx
	movl	12(%ebp), %eax
	movl	%eax, 8(%esp)
	movl	8(%ebp), %eax
	movl	%eax, 4(%esp)
	movl	%edx, (%esp)
	call	__ZNSt7__cxx1112basic_stringIcSt11char_traitsIcESaIcEE13_S_copy_charsEPcS5_S5_
	movl	-28(%ebp), %edx
	movl	-44(%ebp), %eax
	movl	%edx, (%esp)
	movl	$-1, -92(%ebp)
	movl	%eax, %ecx
	call	__ZNSt7__cxx1112basic_stringIcSt11char_traitsIcESaIcEE13_M_set_lengthEj
	subl	$4, %esp
	jmp	L349
L346:
	leal	24(%ebp), %ebp
	movl	-88(%ebp), %edx
	movl	-92(%ebp), %eax
	testl	%eax, %eax
	je	L347
	subl	$1, %eax
	testl	%eax, %eax
	je	L348
	subl	$1, %eax
	ud2
L347:
	movl	%edx, %eax
	movl	%eax, (%esp)
	call	___cxa_begin_catch
	movl	-44(%ebp), %eax
	movl	$2, -92(%ebp)
	movl	%eax, %ecx
	call	__ZNSt7__cxx1112basic_stringIcSt11char_traitsIcESaIcEE10_M_disposeEv
	call	___cxa_rethrow
L348:
	movl	%edx, -100(%ebp)
	movl	$0, -92(%ebp)
	call	___cxa_end_catch
	movl	-100(%ebp), %eax
	movl	%eax, (%esp)
	movl	$-1, -92(%ebp)
	call	__Unwind_SjLj_Resume
L349:
	leal	-96(%ebp), %eax
	movl	%eax, (%esp)
	call	__Unwind_SjLj_Unregister
	leal	-12(%ebp), %esp
	popl	%ebx
	popl	%esi
	popl	%edi
	popl	%ebp
	ret	$12
	.section	.gcc_except_table,"w"
	.align 4
LLSDA12625:
	.byte	0xff
	.byte	0
	.uleb128 LLSDATT12625-LLSDATTD12625
LLSDATTD12625:
	.byte	0x1
	.uleb128 LLSDACSE12625-LLSDACSB12625
LLSDACSB12625:
	.uleb128 0
	.uleb128 0x1
	.uleb128 0x1
	.uleb128 0
LLSDACSE12625:
	.byte	0x1
	.byte	0
	.align 4
	.long	0
LLSDATT12625:
	.section	.text$_ZNSt7__cxx1112basic_stringIcSt11char_traitsIcESaIcEE12_M_constructIPcEEvT_S7_St20forward_iterator_tag,"x"
	.linkonce discard
	.section	.text$_ZN9__gnu_cxx13new_allocatorIiEC2ERKS1_,"x"
	.linkonce discard
	.align 2
	.globl	__ZN9__gnu_cxx13new_allocatorIiEC2ERKS1_
	.def	__ZN9__gnu_cxx13new_allocatorIiEC2ERKS1_;	.scl	2;	.type	32;	.endef
__ZN9__gnu_cxx13new_allocatorIiEC2ERKS1_:
	pushl	%ebp
	movl	%esp, %ebp
	subl	$4, %esp
	movl	%ecx, -4(%ebp)
	nop
	leave
	ret	$4
	.section	.text$_ZNSt16allocator_traitsISaIiEE8allocateERS0_j,"x"
	.linkonce discard
	.globl	__ZNSt16allocator_traitsISaIiEE8allocateERS0_j
	.def	__ZNSt16allocator_traitsISaIiEE8allocateERS0_j;	.scl	2;	.type	32;	.endef
__ZNSt16allocator_traitsISaIiEE8allocateERS0_j:
	pushl	%ebp
	movl	%esp, %ebp
	subl	$24, %esp
	movl	$0, 4(%esp)
	movl	12(%ebp), %eax
	movl	%eax, (%esp)
	movl	8(%ebp), %ecx
	call	__ZN9__gnu_cxx13new_allocatorIiE8allocateEjPKv
	subl	$8, %esp
	leave
	ret
	.section	.text$_ZN9__gnu_cxx13new_allocatorIiE10deallocateEPij,"x"
	.linkonce discard
	.align 2
	.globl	__ZN9__gnu_cxx13new_allocatorIiE10deallocateEPij
	.def	__ZN9__gnu_cxx13new_allocatorIiE10deallocateEPij;	.scl	2;	.type	32;	.endef
__ZN9__gnu_cxx13new_allocatorIiE10deallocateEPij:
	pushl	%ebp
	movl	%esp, %ebp
	subl	$40, %esp
	movl	%ecx, -12(%ebp)
	movl	8(%ebp), %eax
	movl	%eax, (%esp)
	call	__ZdlPv
	nop
	leave
	ret	$8
	.section	.text$_ZNSt27__uninitialized_default_n_1ILb1EE18__uninit_default_nIPijEET_S3_T0_,"x"
	.linkonce discard
	.globl	__ZNSt27__uninitialized_default_n_1ILb1EE18__uninit_default_nIPijEET_S3_T0_
	.def	__ZNSt27__uninitialized_default_n_1ILb1EE18__uninit_default_nIPijEET_S3_T0_;	.scl	2;	.type	32;	.endef
__ZNSt27__uninitialized_default_n_1ILb1EE18__uninit_default_nIPijEET_S3_T0_:
	pushl	%ebp
	movl	%esp, %ebp
	subl	$40, %esp
	movl	$0, -12(%ebp)
	leal	-12(%ebp), %eax
	movl	%eax, 8(%esp)
	movl	12(%ebp), %eax
	movl	%eax, 4(%esp)
	movl	8(%ebp), %eax
	movl	%eax, (%esp)
	call	__ZSt6fill_nIPijiET_S1_T0_RKT1_
	leave
	ret
	.section	.text$_ZNSt14pointer_traitsIPNSt8__detail10_Hash_nodeISt4pairIKiS2_IiiEELb0EEEE10pointer_toERS6_,"x"
	.linkonce discard
	.globl	__ZNSt14pointer_traitsIPNSt8__detail10_Hash_nodeISt4pairIKiS2_IiiEELb0EEEE10pointer_toERS6_
	.def	__ZNSt14pointer_traitsIPNSt8__detail10_Hash_nodeISt4pairIKiS2_IiiEELb0EEEE10pointer_toERS6_;	.scl	2;	.type	32;	.endef
__ZNSt14pointer_traitsIPNSt8__detail10_Hash_nodeISt4pairIKiS2_IiiEELb0EEEE10pointer_toERS6_:
	pushl	%ebp
	movl	%esp, %ebp
	subl	$24, %esp
	movl	8(%ebp), %eax
	movl	%eax, (%esp)
	call	__ZSt9addressofINSt8__detail10_Hash_nodeISt4pairIKiS2_IiiEELb0EEEEPT_RS7_
	leave
	ret
	.section	.text$_ZNSt16allocator_traitsISaISt4pairIKiS0_IiiEEEE7destroyIS3_EEvRS4_PT_,"x"
	.linkonce discard
	.globl	__ZNSt16allocator_traitsISaISt4pairIKiS0_IiiEEEE7destroyIS3_EEvRS4_PT_
	.def	__ZNSt16allocator_traitsISaISt4pairIKiS0_IiiEEEE7destroyIS3_EEvRS4_PT_;	.scl	2;	.type	32;	.endef
__ZNSt16allocator_traitsISaISt4pairIKiS0_IiiEEEE7destroyIS3_EEvRS4_PT_:
	pushl	%ebp
	movl	%esp, %ebp
	subl	$24, %esp
	movl	12(%ebp), %eax
	movl	%eax, 4(%esp)
	movl	8(%ebp), %eax
	movl	%eax, (%esp)
	call	__ZNSt16allocator_traitsISaISt4pairIKiS0_IiiEEEE10_S_destroyIS3_EENSt9enable_ifIXsrSt6__and_IJNS5_16__destroy_helperIT_E4typeEEE5valueEvE4typeERS4_PSA_
	nop
	leave
	ret
	.section	.text$_ZNSt14pointer_traitsIPPNSt8__detail15_Hash_node_baseEE10pointer_toERS2_,"x"
	.linkonce discard
	.globl	__ZNSt14pointer_traitsIPPNSt8__detail15_Hash_node_baseEE10pointer_toERS2_
	.def	__ZNSt14pointer_traitsIPPNSt8__detail15_Hash_node_baseEE10pointer_toERS2_;	.scl	2;	.type	32;	.endef
__ZNSt14pointer_traitsIPPNSt8__detail15_Hash_node_baseEE10pointer_toERS2_:
	pushl	%ebp
	movl	%esp, %ebp
	subl	$24, %esp
	movl	8(%ebp), %eax
	movl	%eax, (%esp)
	call	__ZSt9addressofIPNSt8__detail15_Hash_node_baseEEPT_RS3_
	leave
	ret
	.section	.text$_ZNSaIPNSt8__detail15_Hash_node_baseEEC1INS_10_Hash_nodeISt4pairIKiS5_IiiEELb0EEEEERKSaIT_E,"x"
	.linkonce discard
	.align 2
	.globl	__ZNSaIPNSt8__detail15_Hash_node_baseEEC1INS_10_Hash_nodeISt4pairIKiS5_IiiEELb0EEEEERKSaIT_E
	.def	__ZNSaIPNSt8__detail15_Hash_node_baseEEC1INS_10_Hash_nodeISt4pairIKiS5_IiiEELb0EEEEERKSaIT_E;	.scl	2;	.type	32;	.endef
__ZNSaIPNSt8__detail15_Hash_node_baseEEC1INS_10_Hash_nodeISt4pairIKiS5_IiiEELb0EEEEERKSaIT_E:
	pushl	%ebp
	movl	%esp, %ebp
	subl	$24, %esp
	movl	%ecx, -12(%ebp)
	movl	-12(%ebp), %eax
	movl	%eax, %ecx
	call	__ZN9__gnu_cxx13new_allocatorIPNSt8__detail15_Hash_node_baseEEC2Ev
	nop
	leave
	ret	$4
	.section	.text$_ZNSaIPNSt8__detail15_Hash_node_baseEED1Ev,"x"
	.linkonce discard
	.align 2
	.globl	__ZNSaIPNSt8__detail15_Hash_node_baseEED1Ev
	.def	__ZNSaIPNSt8__detail15_Hash_node_baseEED1Ev;	.scl	2;	.type	32;	.endef
__ZNSaIPNSt8__detail15_Hash_node_baseEED1Ev:
	pushl	%ebp
	movl	%esp, %ebp
	subl	$24, %esp
	movl	%ecx, -12(%ebp)
	movl	-12(%ebp), %eax
	movl	%eax, %ecx
	call	__ZN9__gnu_cxx13new_allocatorIPNSt8__detail15_Hash_node_baseEED2Ev
	nop
	leave
	ret
	.section	.text$_ZNSt16allocator_traitsISaIPNSt8__detail15_Hash_node_baseEEE10deallocateERS3_PS2_j,"x"
	.linkonce discard
	.globl	__ZNSt16allocator_traitsISaIPNSt8__detail15_Hash_node_baseEEE10deallocateERS3_PS2_j
	.def	__ZNSt16allocator_traitsISaIPNSt8__detail15_Hash_node_baseEEE10deallocateERS3_PS2_j;	.scl	2;	.type	32;	.endef
__ZNSt16allocator_traitsISaIPNSt8__detail15_Hash_node_baseEEE10deallocateERS3_PS2_j:
	pushl	%ebp
	movl	%esp, %ebp
	subl	$24, %esp
	movl	16(%ebp), %eax
	movl	%eax, 4(%esp)
	movl	12(%ebp), %eax
	movl	%eax, (%esp)
	movl	8(%ebp), %ecx
	call	__ZN9__gnu_cxx13new_allocatorIPNSt8__detail15_Hash_node_baseEE10deallocateEPS3_j
	subl	$8, %esp
	nop
	leave
	ret
	.section	.text$_ZNSt8__detail21_Hashtable_ebo_helperILi1ESt4hashIiELb1EE7_S_cgetERKS3_,"x"
	.linkonce discard
	.globl	__ZNSt8__detail21_Hashtable_ebo_helperILi1ESt4hashIiELb1EE7_S_cgetERKS3_
	.def	__ZNSt8__detail21_Hashtable_ebo_helperILi1ESt4hashIiELb1EE7_S_cgetERKS3_;	.scl	2;	.type	32;	.endef
__ZNSt8__detail21_Hashtable_ebo_helperILi1ESt4hashIiELb1EE7_S_cgetERKS3_:
	pushl	%ebp
	movl	%esp, %ebp
	movl	8(%ebp), %eax
	popl	%ebp
	ret
	.section	.text$_ZNKSt8__detail15_Hash_code_baseIiSt4pairIKiS1_IiiEENS_10_Select1stESt4hashIiENS_18_Mod_range_hashingENS_20_Default_ranged_hashELb0EE5_M_h2Ev,"x"
	.linkonce discard
	.align 2
	.globl	__ZNKSt8__detail15_Hash_code_baseIiSt4pairIKiS1_IiiEENS_10_Select1stESt4hashIiENS_18_Mod_range_hashingENS_20_Default_ranged_hashELb0EE5_M_h2Ev
	.def	__ZNKSt8__detail15_Hash_code_baseIiSt4pairIKiS1_IiiEENS_10_Select1stESt4hashIiENS_18_Mod_range_hashingENS_20_Default_ranged_hashELb0EE5_M_h2Ev;	.scl	2;	.type	32;	.endef
__ZNKSt8__detail15_Hash_code_baseIiSt4pairIKiS1_IiiEENS_10_Select1stESt4hashIiENS_18_Mod_range_hashingENS_20_Default_ranged_hashELb0EE5_M_h2Ev:
	pushl	%ebp
	movl	%esp, %ebp
	subl	$40, %esp
	movl	%ecx, -12(%ebp)
	movl	-12(%ebp), %eax
	movl	%eax, (%esp)
	call	__ZNSt8__detail21_Hashtable_ebo_helperILi2ENS_18_Mod_range_hashingELb1EE7_S_cgetERKS2_
	leave
	ret
	.section	.text$_ZNKSt8__detail15_Hashtable_baseIiSt4pairIKiS1_IiiEENS_10_Select1stESt8equal_toIiESt4hashIiENS_18_Mod_range_hashingENS_20_Default_ranged_hashENS_17_Hashtable_traitsILb0ELb0ELb1EEEE9_M_equalsERS2_jPNS_10_Hash_nodeIS4_Lb0EEE,"x"
	.linkonce discard
	.align 2
	.globl	__ZNKSt8__detail15_Hashtable_baseIiSt4pairIKiS1_IiiEENS_10_Select1stESt8equal_toIiESt4hashIiENS_18_Mod_range_hashingENS_20_Default_ranged_hashENS_17_Hashtable_traitsILb0ELb0ELb1EEEE9_M_equalsERS2_jPNS_10_Hash_nodeIS4_Lb0EEE
	.def	__ZNKSt8__detail15_Hashtable_baseIiSt4pairIKiS1_IiiEENS_10_Select1stESt8equal_toIiESt4hashIiENS_18_Mod_range_hashingENS_20_Default_ranged_hashENS_17_Hashtable_traitsILb0ELb0ELb1EEEE9_M_equalsERS2_jPNS_10_Hash_nodeIS4_Lb0EEE;	.scl	2;	.type	32;	.endef
__ZNKSt8__detail15_Hashtable_baseIiSt4pairIKiS1_IiiEENS_10_Select1stESt8equal_toIiESt4hashIiENS_18_Mod_range_hashingENS_20_Default_ranged_hashENS_17_Hashtable_traitsILb0ELb0ELb1EEEE9_M_equalsERS2_jPNS_10_Hash_nodeIS4_Lb0EEE:
	pushl	%ebp
	movl	%esp, %ebp
	pushl	%ebx
	subl	$52, %esp
	movl	%ecx, -12(%ebp)
	movl	-12(%ebp), %eax
	movl	%eax, %ecx
	call	__ZNKSt8__detail15_Hash_code_baseIiSt4pairIKiS1_IiiEENS_10_Select1stESt4hashIiENS_18_Mod_range_hashingENS_20_Default_ranged_hashELb0EE10_M_extractEv
	movl	%eax, %ebx
	movl	-12(%ebp), %eax
	movl	%eax, %ecx
	call	__ZNKSt8__detail15_Hashtable_baseIiSt4pairIKiS1_IiiEENS_10_Select1stESt8equal_toIiESt4hashIiENS_18_Mod_range_hashingENS_20_Default_ranged_hashENS_17_Hashtable_traitsILb0ELb0ELb1EEEE5_M_eqEv
	movl	%eax, %edx
	movl	16(%ebp), %eax
	movl	%eax, 16(%esp)
	movl	12(%ebp), %eax
	movl	%eax, 12(%esp)
	movl	8(%ebp), %eax
	movl	%eax, 8(%esp)
	movl	%ebx, 4(%esp)
	movl	%edx, (%esp)
	call	__ZNSt8__detail13_Equal_helperIiSt4pairIKiS1_IiiEENS_10_Select1stESt8equal_toIiEjLb0EE9_S_equalsERKS7_RKS5_RS2_jPNS_10_Hash_nodeIS4_Lb0EEE
	addl	$52, %esp
	popl	%ebx
	popl	%ebp
	ret	$12
	.section	.text$_ZNKSt10_HashtableIiSt4pairIKiS0_IiiEESaIS3_ENSt8__detail10_Select1stESt8equal_toIiESt4hashIiENS5_18_Mod_range_hashingENS5_20_Default_ranged_hashENS5_20_Prime_rehash_policyENS5_17_Hashtable_traitsILb0ELb0ELb1EEEE15_M_bucket_indexEPNS5_10_Hash_nodeIS3_Lb0EEE,"x"
	.linkonce discard
	.align 2
	.globl	__ZNKSt10_HashtableIiSt4pairIKiS0_IiiEESaIS3_ENSt8__detail10_Select1stESt8equal_toIiESt4hashIiENS5_18_Mod_range_hashingENS5_20_Default_ranged_hashENS5_20_Prime_rehash_policyENS5_17_Hashtable_traitsILb0ELb0ELb1EEEE15_M_bucket_indexEPNS5_10_Hash_nodeIS3_Lb0EEE
	.def	__ZNKSt10_HashtableIiSt4pairIKiS0_IiiEESaIS3_ENSt8__detail10_Select1stESt8equal_toIiESt4hashIiENS5_18_Mod_range_hashingENS5_20_Default_ranged_hashENS5_20_Prime_rehash_policyENS5_17_Hashtable_traitsILb0ELb0ELb1EEEE15_M_bucket_indexEPNS5_10_Hash_nodeIS3_Lb0EEE;	.scl	2;	.type	32;	.endef
__ZNKSt10_HashtableIiSt4pairIKiS0_IiiEESaIS3_ENSt8__detail10_Select1stESt8equal_toIiESt4hashIiENS5_18_Mod_range_hashingENS5_20_Default_ranged_hashENS5_20_Prime_rehash_policyENS5_17_Hashtable_traitsILb0ELb0ELb1EEEE15_M_bucket_indexEPNS5_10_Hash_nodeIS3_Lb0EEE:
	pushl	%ebp
	movl	%esp, %ebp
	subl	$40, %esp
	movl	%ecx, -12(%ebp)
	movl	-12(%ebp), %eax
	movl	4(%eax), %edx
	movl	-12(%ebp), %eax
	movl	%edx, 4(%esp)
	movl	8(%ebp), %edx
	movl	%edx, (%esp)
	movl	%eax, %ecx
	call	__ZNKSt8__detail15_Hash_code_baseIiSt4pairIKiS1_IiiEENS_10_Select1stESt4hashIiENS_18_Mod_range_hashingENS_20_Default_ranged_hashELb0EE15_M_bucket_indexEPKNS_10_Hash_nodeIS4_Lb0EEEj
	subl	$8, %esp
	leave
	ret	$4
	.section	.text$_ZNSt8__detail21_Hashtable_ebo_helperILi0ESaINS_10_Hash_nodeISt4pairIKiS2_IiiEELb0EEEELb1EE6_S_getERS8_,"x"
	.linkonce discard
	.globl	__ZNSt8__detail21_Hashtable_ebo_helperILi0ESaINS_10_Hash_nodeISt4pairIKiS2_IiiEELb0EEEELb1EE6_S_getERS8_
	.def	__ZNSt8__detail21_Hashtable_ebo_helperILi0ESaINS_10_Hash_nodeISt4pairIKiS2_IiiEELb0EEEELb1EE6_S_getERS8_;	.scl	2;	.type	32;	.endef
__ZNSt8__detail21_Hashtable_ebo_helperILi0ESaINS_10_Hash_nodeISt4pairIKiS2_IiiEELb0EEEELb1EE6_S_getERS8_:
	pushl	%ebp
	movl	%esp, %ebp
	movl	8(%ebp), %eax
	popl	%ebp
	ret
	.section	.text$_ZN9__gnu_cxx13new_allocatorINSt8__detail10_Hash_nodeISt4pairIKiS3_IiiEELb0EEEE8allocateEjPKv,"x"
	.linkonce discard
	.align 2
	.globl	__ZN9__gnu_cxx13new_allocatorINSt8__detail10_Hash_nodeISt4pairIKiS3_IiiEELb0EEEE8allocateEjPKv
	.def	__ZN9__gnu_cxx13new_allocatorINSt8__detail10_Hash_nodeISt4pairIKiS3_IiiEELb0EEEE8allocateEjPKv;	.scl	2;	.type	32;	.endef
__ZN9__gnu_cxx13new_allocatorINSt8__detail10_Hash_nodeISt4pairIKiS3_IiiEELb0EEEE8allocateEjPKv:
	pushl	%ebp
	movl	%esp, %ebp
	subl	$40, %esp
	movl	%ecx, -12(%ebp)
	movl	-12(%ebp), %eax
	movl	%eax, %ecx
	call	__ZNK9__gnu_cxx13new_allocatorINSt8__detail10_Hash_nodeISt4pairIKiS3_IiiEELb0EEEE8max_sizeEv
	cmpl	8(%ebp), %eax
	setb	%al
	testb	%al, %al
	je	L375
	call	__ZSt17__throw_bad_allocv
L375:
	movl	8(%ebp), %eax
	sall	$4, %eax
	movl	%eax, (%esp)
	call	__Znwj
	leave
	ret	$8
	.section	.text$_ZN9__gnu_cxx13new_allocatorISt4pairIKiS1_IiiEEEC2Ev,"x"
	.linkonce discard
	.align 2
	.globl	__ZN9__gnu_cxx13new_allocatorISt4pairIKiS1_IiiEEEC2Ev
	.def	__ZN9__gnu_cxx13new_allocatorISt4pairIKiS1_IiiEEEC2Ev;	.scl	2;	.type	32;	.endef
__ZN9__gnu_cxx13new_allocatorISt4pairIKiS1_IiiEEEC2Ev:
	pushl	%ebp
	movl	%esp, %ebp
	subl	$4, %esp
	movl	%ecx, -4(%ebp)
	nop
	leave
	ret
	.section	.text$_ZN9__gnu_cxx13new_allocatorISt4pairIKiS1_IiiEEED2Ev,"x"
	.linkonce discard
	.align 2
	.globl	__ZN9__gnu_cxx13new_allocatorISt4pairIKiS1_IiiEEED2Ev
	.def	__ZN9__gnu_cxx13new_allocatorISt4pairIKiS1_IiiEEED2Ev;	.scl	2;	.type	32;	.endef
__ZN9__gnu_cxx13new_allocatorISt4pairIKiS1_IiiEEED2Ev:
	pushl	%ebp
	movl	%esp, %ebp
	subl	$4, %esp
	movl	%ecx, -4(%ebp)
	nop
	leave
	ret
	.section	.text$_ZN9__gnu_cxx16__aligned_bufferISt4pairIKiS1_IiiEEE6_M_ptrEv,"x"
	.linkonce discard
	.align 2
	.globl	__ZN9__gnu_cxx16__aligned_bufferISt4pairIKiS1_IiiEEE6_M_ptrEv
	.def	__ZN9__gnu_cxx16__aligned_bufferISt4pairIKiS1_IiiEEE6_M_ptrEv;	.scl	2;	.type	32;	.endef
__ZN9__gnu_cxx16__aligned_bufferISt4pairIKiS1_IiiEEE6_M_ptrEv:
	pushl	%ebp
	movl	%esp, %ebp
	subl	$24, %esp
	movl	%ecx, -12(%ebp)
	movl	-12(%ebp), %eax
	movl	%eax, %ecx
	call	__ZN9__gnu_cxx16__aligned_bufferISt4pairIKiS1_IiiEEE7_M_addrEv
	leave
	ret
	.section	.text$_ZNSt16allocator_traitsISaISt4pairIKiS0_IiiEEEE12_S_constructIS3_JRKSt21piecewise_construct_tSt5tupleIJRS1_EESA_IJEEEEENSt9enable_ifIXsrSt6__and_IJNS5_18__construct_helperIT_JDpT0_EE4typeEEE5valueEvE4typeERS4_PSH_DpOSI_,"x"
	.linkonce discard
	.globl	__ZNSt16allocator_traitsISaISt4pairIKiS0_IiiEEEE12_S_constructIS3_JRKSt21piecewise_construct_tSt5tupleIJRS1_EESA_IJEEEEENSt9enable_ifIXsrSt6__and_IJNS5_18__construct_helperIT_JDpT0_EE4typeEEE5valueEvE4typeERS4_PSH_DpOSI_
	.def	__ZNSt16allocator_traitsISaISt4pairIKiS0_IiiEEEE12_S_constructIS3_JRKSt21piecewise_construct_tSt5tupleIJRS1_EESA_IJEEEEENSt9enable_ifIXsrSt6__and_IJNS5_18__construct_helperIT_JDpT0_EE4typeEEE5valueEvE4typeERS4_PSH_DpOSI_;	.scl	2;	.type	32;	.endef
__ZNSt16allocator_traitsISaISt4pairIKiS0_IiiEEEE12_S_constructIS3_JRKSt21piecewise_construct_tSt5tupleIJRS1_EESA_IJEEEEENSt9enable_ifIXsrSt6__and_IJNS5_18__construct_helperIT_JDpT0_EE4typeEEE5valueEvE4typeERS4_PSH_DpOSI_:
	pushl	%ebp
	movl	%esp, %ebp
	pushl	%esi
	pushl	%ebx
	subl	$16, %esp
	movl	24(%ebp), %eax
	movl	%eax, (%esp)
	call	__ZSt7forwardISt5tupleIJEEEOT_RNSt16remove_referenceIS2_E4typeE
	movl	%eax, %esi
	movl	20(%ebp), %eax
	movl	%eax, (%esp)
	call	__ZSt7forwardISt5tupleIJRKiEEEOT_RNSt16remove_referenceIS4_E4typeE
	movl	%eax, %ebx
	movl	16(%ebp), %eax
	movl	%eax, (%esp)
	call	__ZSt7forwardIRKSt21piecewise_construct_tEOT_RNSt16remove_referenceIS3_E4typeE
	movl	%esi, 12(%esp)
	movl	%ebx, 8(%esp)
	movl	%eax, 4(%esp)
	movl	12(%ebp), %eax
	movl	%eax, (%esp)
	movl	8(%ebp), %ecx
	call	__ZN9__gnu_cxx13new_allocatorISt4pairIKiS1_IiiEEE9constructIS4_JRKSt21piecewise_construct_tSt5tupleIJRS2_EESA_IJEEEEEvPT_DpOT0_
	subl	$16, %esp
	nop
	leal	-8(%ebp), %esp
	popl	%ebx
	popl	%esi
	popl	%ebp
	ret
	.weak	__ZNSt16allocator_traitsISaISt4pairIKiS0_IiiEEEE12_S_constructIS3_IRKSt21piecewise_construct_tSt5tupleIIRS1_EESA_IIEEEEENSt9enable_ifIXsrSt6__and_IINS5_18__construct_helperIT_IDpT0_EE4typeEEE5valueEvE4typeERS4_PSH_DpOSI_
	.def	__ZNSt16allocator_traitsISaISt4pairIKiS0_IiiEEEE12_S_constructIS3_IRKSt21piecewise_construct_tSt5tupleIIRS1_EESA_IIEEEEENSt9enable_ifIXsrSt6__and_IINS5_18__construct_helperIT_IDpT0_EE4typeEEE5valueEvE4typeERS4_PSH_DpOSI_;	.scl	2;	.type	32;	.endef
	.set	__ZNSt16allocator_traitsISaISt4pairIKiS0_IiiEEEE12_S_constructIS3_IRKSt21piecewise_construct_tSt5tupleIIRS1_EESA_IIEEEEENSt9enable_ifIXsrSt6__and_IINS5_18__construct_helperIT_IDpT0_EE4typeEEE5valueEvE4typeERS4_PSH_DpOSI_,__ZNSt16allocator_traitsISaISt4pairIKiS0_IiiEEEE12_S_constructIS3_JRKSt21piecewise_construct_tSt5tupleIJRS1_EESA_IJEEEEENSt9enable_ifIXsrSt6__and_IJNS5_18__construct_helperIT_JDpT0_EE4typeEEE5valueEvE4typeERS4_PSH_DpOSI_
	.section	.text$_ZN9__gnu_cxx13new_allocatorINSt8__detail10_Hash_nodeISt4pairIKiS3_IiiEELb0EEEE10deallocateEPS7_j,"x"
	.linkonce discard
	.align 2
	.globl	__ZN9__gnu_cxx13new_allocatorINSt8__detail10_Hash_nodeISt4pairIKiS3_IiiEELb0EEEE10deallocateEPS7_j
	.def	__ZN9__gnu_cxx13new_allocatorINSt8__detail10_Hash_nodeISt4pairIKiS3_IiiEELb0EEEE10deallocateEPS7_j;	.scl	2;	.type	32;	.endef
__ZN9__gnu_cxx13new_allocatorINSt8__detail10_Hash_nodeISt4pairIKiS3_IiiEELb0EEEE10deallocateEPS7_j:
	pushl	%ebp
	movl	%esp, %ebp
	subl	$40, %esp
	movl	%ecx, -12(%ebp)
	movl	8(%ebp), %eax
	movl	%eax, (%esp)
	call	__ZdlPv
	nop
	leave
	ret	$8
	.section	.text$_ZNSt10_HashtableIiSt4pairIKiS0_IiiEESaIS3_ENSt8__detail10_Select1stESt8equal_toIiESt4hashIiENS5_18_Mod_range_hashingENS5_20_Default_ranged_hashENS5_20_Prime_rehash_policyENS5_17_Hashtable_traitsILb0ELb0ELb1EEEE13_M_rehash_auxEjSt17integral_constantIbLb1EE,"x"
	.linkonce discard
	.align 2
	.globl	__ZNSt10_HashtableIiSt4pairIKiS0_IiiEESaIS3_ENSt8__detail10_Select1stESt8equal_toIiESt4hashIiENS5_18_Mod_range_hashingENS5_20_Default_ranged_hashENS5_20_Prime_rehash_policyENS5_17_Hashtable_traitsILb0ELb0ELb1EEEE13_M_rehash_auxEjSt17integral_constantIbLb1EE
	.def	__ZNSt10_HashtableIiSt4pairIKiS0_IiiEESaIS3_ENSt8__detail10_Select1stESt8equal_toIiESt4hashIiENS5_18_Mod_range_hashingENS5_20_Default_ranged_hashENS5_20_Prime_rehash_policyENS5_17_Hashtable_traitsILb0ELb0ELb1EEEE13_M_rehash_auxEjSt17integral_constantIbLb1EE;	.scl	2;	.type	32;	.endef
__ZNSt10_HashtableIiSt4pairIKiS0_IiiEESaIS3_ENSt8__detail10_Select1stESt8equal_toIiESt4hashIiENS5_18_Mod_range_hashingENS5_20_Default_ranged_hashENS5_20_Prime_rehash_policyENS5_17_Hashtable_traitsILb0ELb0ELb1EEEE13_M_rehash_auxEjSt17integral_constantIbLb1EE:
	pushl	%ebp
	movl	%esp, %ebp
	subl	$72, %esp
	movl	%ecx, -44(%ebp)
	movl	-44(%ebp), %eax
	movl	8(%ebp), %edx
	movl	%edx, (%esp)
	movl	%eax, %ecx
	call	__ZNSt10_HashtableIiSt4pairIKiS0_IiiEESaIS3_ENSt8__detail10_Select1stESt8equal_toIiESt4hashIiENS5_18_Mod_range_hashingENS5_20_Default_ranged_hashENS5_20_Prime_rehash_policyENS5_17_Hashtable_traitsILb0ELb0ELb1EEEE19_M_allocate_bucketsEj
	subl	$4, %esp
	movl	%eax, -20(%ebp)
	movl	-44(%ebp), %eax
	movl	%eax, %ecx
	call	__ZNKSt10_HashtableIiSt4pairIKiS0_IiiEESaIS3_ENSt8__detail10_Select1stESt8equal_toIiESt4hashIiENS5_18_Mod_range_hashingENS5_20_Default_ranged_hashENS5_20_Prime_rehash_policyENS5_17_Hashtable_traitsILb0ELb0ELb1EEEE8_M_beginEv
	movl	%eax, -12(%ebp)
	movl	-44(%ebp), %eax
	movl	$0, 8(%eax)
	movl	$0, -16(%ebp)
L388:
	cmpl	$0, -12(%ebp)
	je	L384
	movl	-12(%ebp), %eax
	movl	%eax, %ecx
	call	__ZNKSt8__detail10_Hash_nodeISt4pairIKiS1_IiiEELb0EE7_M_nextEv
	movl	%eax, -24(%ebp)
	movl	-44(%ebp), %eax
	movl	8(%ebp), %edx
	movl	%edx, 4(%esp)
	movl	-12(%ebp), %edx
	movl	%edx, (%esp)
	movl	%eax, %ecx
	call	__ZNKSt8__detail15_Hash_code_baseIiSt4pairIKiS1_IiiEENS_10_Select1stESt4hashIiENS_18_Mod_range_hashingENS_20_Default_ranged_hashELb0EE15_M_bucket_indexEPKNS_10_Hash_nodeIS4_Lb0EEEj
	subl	$8, %esp
	movl	%eax, -28(%ebp)
	movl	-28(%ebp), %eax
	leal	0(,%eax,4), %edx
	movl	-20(%ebp), %eax
	addl	%edx, %eax
	movl	(%eax), %eax
	testl	%eax, %eax
	jne	L385
	movl	-44(%ebp), %eax
	movl	8(%eax), %edx
	movl	-12(%ebp), %eax
	movl	%edx, (%eax)
	movl	-44(%ebp), %eax
	movl	-12(%ebp), %edx
	movl	%edx, 8(%eax)
	movl	-28(%ebp), %eax
	leal	0(,%eax,4), %edx
	movl	-20(%ebp), %eax
	addl	%edx, %eax
	movl	-44(%ebp), %edx
	addl	$8, %edx
	movl	%edx, (%eax)
	movl	-12(%ebp), %eax
	movl	(%eax), %eax
	testl	%eax, %eax
	je	L386
	movl	-16(%ebp), %eax
	leal	0(,%eax,4), %edx
	movl	-20(%ebp), %eax
	addl	%eax, %edx
	movl	-12(%ebp), %eax
	movl	%eax, (%edx)
L386:
	movl	-28(%ebp), %eax
	movl	%eax, -16(%ebp)
	jmp	L387
L385:
	movl	-28(%ebp), %eax
	leal	0(,%eax,4), %edx
	movl	-20(%ebp), %eax
	addl	%edx, %eax
	movl	(%eax), %eax
	movl	(%eax), %edx
	movl	-12(%ebp), %eax
	movl	%edx, (%eax)
	movl	-28(%ebp), %eax
	leal	0(,%eax,4), %edx
	movl	-20(%ebp), %eax
	addl	%edx, %eax
	movl	(%eax), %eax
	movl	-12(%ebp), %edx
	movl	%edx, (%eax)
L387:
	movl	-24(%ebp), %eax
	movl	%eax, -12(%ebp)
	jmp	L388
L384:
	movl	-44(%ebp), %eax
	movl	%eax, %ecx
	call	__ZNSt10_HashtableIiSt4pairIKiS0_IiiEESaIS3_ENSt8__detail10_Select1stESt8equal_toIiESt4hashIiENS5_18_Mod_range_hashingENS5_20_Default_ranged_hashENS5_20_Prime_rehash_policyENS5_17_Hashtable_traitsILb0ELb0ELb1EEEE21_M_deallocate_bucketsEv
	movl	-44(%ebp), %eax
	movl	8(%ebp), %edx
	movl	%edx, 4(%eax)
	movl	-44(%ebp), %eax
	movl	-20(%ebp), %edx
	movl	%edx, (%eax)
	nop
	leave
	ret	$8
	.section	.text$_ZNSt8__detail21_Hashtable_ebo_helperILi0ENS_10_Select1stELb1EE6_S_getERS2_,"x"
	.linkonce discard
	.globl	__ZNSt8__detail21_Hashtable_ebo_helperILi0ENS_10_Select1stELb1EE6_S_getERS2_
	.def	__ZNSt8__detail21_Hashtable_ebo_helperILi0ENS_10_Select1stELb1EE6_S_getERS2_;	.scl	2;	.type	32;	.endef
__ZNSt8__detail21_Hashtable_ebo_helperILi0ENS_10_Select1stELb1EE6_S_getERS2_:
	pushl	%ebp
	movl	%esp, %ebp
	movl	8(%ebp), %eax
	popl	%ebp
	ret
	.section	.text$_ZNSt8__detail19_Node_iterator_baseISt4pairIKiS1_IiiEELb0EEC2EPNS_10_Hash_nodeIS4_Lb0EEE,"x"
	.linkonce discard
	.align 2
	.globl	__ZNSt8__detail19_Node_iterator_baseISt4pairIKiS1_IiiEELb0EEC2EPNS_10_Hash_nodeIS4_Lb0EEE
	.def	__ZNSt8__detail19_Node_iterator_baseISt4pairIKiS1_IiiEELb0EEC2EPNS_10_Hash_nodeIS4_Lb0EEE;	.scl	2;	.type	32;	.endef
__ZNSt8__detail19_Node_iterator_baseISt4pairIKiS1_IiiEELb0EEC2EPNS_10_Hash_nodeIS4_Lb0EEE:
	pushl	%ebp
	movl	%esp, %ebp
	subl	$4, %esp
	movl	%ecx, -4(%ebp)
	movl	-4(%ebp), %eax
	movl	8(%ebp), %edx
	movl	%edx, (%eax)
	nop
	leave
	ret	$4
	.section	.text$_ZN9__gnu_cxx17__is_null_pointerIcEEbPT_,"x"
	.linkonce discard
	.globl	__ZN9__gnu_cxx17__is_null_pointerIcEEbPT_
	.def	__ZN9__gnu_cxx17__is_null_pointerIcEEbPT_;	.scl	2;	.type	32;	.endef
__ZN9__gnu_cxx17__is_null_pointerIcEEbPT_:
	pushl	%ebp
	movl	%esp, %ebp
	cmpl	$0, 8(%ebp)
	sete	%al
	popl	%ebp
	ret
	.section	.text$_ZSt8distanceIPcENSt15iterator_traitsIT_E15difference_typeES2_S2_,"x"
	.linkonce discard
	.globl	__ZSt8distanceIPcENSt15iterator_traitsIT_E15difference_typeES2_S2_
	.def	__ZSt8distanceIPcENSt15iterator_traitsIT_E15difference_typeES2_S2_;	.scl	2;	.type	32;	.endef
__ZSt8distanceIPcENSt15iterator_traitsIT_E15difference_typeES2_S2_:
	pushl	%ebp
	movl	%esp, %ebp
	pushl	%ebx
	subl	$36, %esp
	leal	8(%ebp), %eax
	movl	%eax, (%esp)
	call	__ZSt19__iterator_categoryIPcENSt15iterator_traitsIT_E17iterator_categoryERKS2_
	movl	8(%ebp), %eax
	movb	%bl, 8(%esp)
	movl	12(%ebp), %edx
	movl	%edx, 4(%esp)
	movl	%eax, (%esp)
	call	__ZSt10__distanceIPcENSt15iterator_traitsIT_E15difference_typeES2_S2_St26random_access_iterator_tag
	addl	$36, %esp
	popl	%ebx
	popl	%ebp
	ret
	.section	.text$_ZN9__gnu_cxx13new_allocatorIiE8allocateEjPKv,"x"
	.linkonce discard
	.align 2
	.globl	__ZN9__gnu_cxx13new_allocatorIiE8allocateEjPKv
	.def	__ZN9__gnu_cxx13new_allocatorIiE8allocateEjPKv;	.scl	2;	.type	32;	.endef
__ZN9__gnu_cxx13new_allocatorIiE8allocateEjPKv:
	pushl	%ebp
	movl	%esp, %ebp
	subl	$40, %esp
	movl	%ecx, -12(%ebp)
	movl	-12(%ebp), %eax
	movl	%eax, %ecx
	call	__ZNK9__gnu_cxx13new_allocatorIiE8max_sizeEv
	cmpl	8(%ebp), %eax
	setb	%al
	testb	%al, %al
	je	L397
	call	__ZSt17__throw_bad_allocv
L397:
	movl	8(%ebp), %eax
	sall	$2, %eax
	movl	%eax, (%esp)
	call	__Znwj
	leave
	ret	$8
	.section	.text$_ZSt6fill_nIPijiET_S1_T0_RKT1_,"x"
	.linkonce discard
	.globl	__ZSt6fill_nIPijiET_S1_T0_RKT1_
	.def	__ZSt6fill_nIPijiET_S1_T0_RKT1_;	.scl	2;	.type	32;	.endef
__ZSt6fill_nIPijiET_S1_T0_RKT1_:
	pushl	%ebp
	movl	%esp, %ebp
	subl	$24, %esp
	movl	8(%ebp), %eax
	movl	%eax, (%esp)
	call	__ZSt12__niter_baseIPiENSt11_Niter_baseIT_E13iterator_typeES2_
	movl	%eax, %edx
	movl	16(%ebp), %eax
	movl	%eax, 8(%esp)
	movl	12(%ebp), %eax
	movl	%eax, 4(%esp)
	movl	%edx, (%esp)
	call	__ZSt10__fill_n_aIPijiEN9__gnu_cxx11__enable_ifIXsrSt11__is_scalarIT1_E7__valueET_E6__typeES6_T0_RKS4_
	leave
	ret
	.section	.text$_ZSt9addressofINSt8__detail10_Hash_nodeISt4pairIKiS2_IiiEELb0EEEEPT_RS7_,"x"
	.linkonce discard
	.globl	__ZSt9addressofINSt8__detail10_Hash_nodeISt4pairIKiS2_IiiEELb0EEEEPT_RS7_
	.def	__ZSt9addressofINSt8__detail10_Hash_nodeISt4pairIKiS2_IiiEELb0EEEEPT_RS7_;	.scl	2;	.type	32;	.endef
__ZSt9addressofINSt8__detail10_Hash_nodeISt4pairIKiS2_IiiEELb0EEEEPT_RS7_:
	pushl	%ebp
	movl	%esp, %ebp
	subl	$4, %esp
	movl	8(%ebp), %eax
	movl	%eax, (%esp)
	call	__ZSt11__addressofINSt8__detail10_Hash_nodeISt4pairIKiS2_IiiEELb0EEEEPT_RS7_
	leave
	ret
	.section	.text$_ZNSt16allocator_traitsISaISt4pairIKiS0_IiiEEEE10_S_destroyIS3_EENSt9enable_ifIXsrSt6__and_IJNS5_16__destroy_helperIT_E4typeEEE5valueEvE4typeERS4_PSA_,"x"
	.linkonce discard
	.globl	__ZNSt16allocator_traitsISaISt4pairIKiS0_IiiEEEE10_S_destroyIS3_EENSt9enable_ifIXsrSt6__and_IJNS5_16__destroy_helperIT_E4typeEEE5valueEvE4typeERS4_PSA_
	.def	__ZNSt16allocator_traitsISaISt4pairIKiS0_IiiEEEE10_S_destroyIS3_EENSt9enable_ifIXsrSt6__and_IJNS5_16__destroy_helperIT_E4typeEEE5valueEvE4typeERS4_PSA_;	.scl	2;	.type	32;	.endef
__ZNSt16allocator_traitsISaISt4pairIKiS0_IiiEEEE10_S_destroyIS3_EENSt9enable_ifIXsrSt6__and_IJNS5_16__destroy_helperIT_E4typeEEE5valueEvE4typeERS4_PSA_:
	pushl	%ebp
	movl	%esp, %ebp
	subl	$24, %esp
	movl	12(%ebp), %eax
	movl	%eax, (%esp)
	movl	8(%ebp), %ecx
	call	__ZN9__gnu_cxx13new_allocatorISt4pairIKiS1_IiiEEE7destroyIS4_EEvPT_
	subl	$4, %esp
	nop
	leave
	ret
	.weak	__ZNSt16allocator_traitsISaISt4pairIKiS0_IiiEEEE10_S_destroyIS3_EENSt9enable_ifIXsrSt6__and_IINS5_16__destroy_helperIT_E4typeEEE5valueEvE4typeERS4_PSA_
	.def	__ZNSt16allocator_traitsISaISt4pairIKiS0_IiiEEEE10_S_destroyIS3_EENSt9enable_ifIXsrSt6__and_IINS5_16__destroy_helperIT_E4typeEEE5valueEvE4typeERS4_PSA_;	.scl	2;	.type	32;	.endef
	.set	__ZNSt16allocator_traitsISaISt4pairIKiS0_IiiEEEE10_S_destroyIS3_EENSt9enable_ifIXsrSt6__and_IINS5_16__destroy_helperIT_E4typeEEE5valueEvE4typeERS4_PSA_,__ZNSt16allocator_traitsISaISt4pairIKiS0_IiiEEEE10_S_destroyIS3_EENSt9enable_ifIXsrSt6__and_IJNS5_16__destroy_helperIT_E4typeEEE5valueEvE4typeERS4_PSA_
	.section	.text$_ZSt9addressofIPNSt8__detail15_Hash_node_baseEEPT_RS3_,"x"
	.linkonce discard
	.globl	__ZSt9addressofIPNSt8__detail15_Hash_node_baseEEPT_RS3_
	.def	__ZSt9addressofIPNSt8__detail15_Hash_node_baseEEPT_RS3_;	.scl	2;	.type	32;	.endef
__ZSt9addressofIPNSt8__detail15_Hash_node_baseEEPT_RS3_:
	pushl	%ebp
	movl	%esp, %ebp
	subl	$24, %esp
	movl	8(%ebp), %eax
	movl	%eax, (%esp)
	call	__ZSt11__addressofIPNSt8__detail15_Hash_node_baseEEPT_RS3_
	leave
	ret
	.section	.text$_ZN9__gnu_cxx13new_allocatorIPNSt8__detail15_Hash_node_baseEEC2Ev,"x"
	.linkonce discard
	.align 2
	.globl	__ZN9__gnu_cxx13new_allocatorIPNSt8__detail15_Hash_node_baseEEC2Ev
	.def	__ZN9__gnu_cxx13new_allocatorIPNSt8__detail15_Hash_node_baseEEC2Ev;	.scl	2;	.type	32;	.endef
__ZN9__gnu_cxx13new_allocatorIPNSt8__detail15_Hash_node_baseEEC2Ev:
	pushl	%ebp
	movl	%esp, %ebp
	subl	$4, %esp
	movl	%ecx, -4(%ebp)
	nop
	leave
	ret
	.section	.text$_ZN9__gnu_cxx13new_allocatorIPNSt8__detail15_Hash_node_baseEED2Ev,"x"
	.linkonce discard
	.align 2
	.globl	__ZN9__gnu_cxx13new_allocatorIPNSt8__detail15_Hash_node_baseEED2Ev
	.def	__ZN9__gnu_cxx13new_allocatorIPNSt8__detail15_Hash_node_baseEED2Ev;	.scl	2;	.type	32;	.endef
__ZN9__gnu_cxx13new_allocatorIPNSt8__detail15_Hash_node_baseEED2Ev:
	pushl	%ebp
	movl	%esp, %ebp
	subl	$4, %esp
	movl	%ecx, -4(%ebp)
	nop
	leave
	ret
	.section	.text$_ZN9__gnu_cxx13new_allocatorIPNSt8__detail15_Hash_node_baseEE10deallocateEPS3_j,"x"
	.linkonce discard
	.align 2
	.globl	__ZN9__gnu_cxx13new_allocatorIPNSt8__detail15_Hash_node_baseEE10deallocateEPS3_j
	.def	__ZN9__gnu_cxx13new_allocatorIPNSt8__detail15_Hash_node_baseEE10deallocateEPS3_j;	.scl	2;	.type	32;	.endef
__ZN9__gnu_cxx13new_allocatorIPNSt8__detail15_Hash_node_baseEE10deallocateEPS3_j:
	pushl	%ebp
	movl	%esp, %ebp
	subl	$40, %esp
	movl	%ecx, -12(%ebp)
	movl	8(%ebp), %eax
	movl	%eax, (%esp)
	call	__ZdlPv
	nop
	leave
	ret	$8
	.section	.text$_ZNSt8__detail21_Hashtable_ebo_helperILi2ENS_18_Mod_range_hashingELb1EE7_S_cgetERKS2_,"x"
	.linkonce discard
	.globl	__ZNSt8__detail21_Hashtable_ebo_helperILi2ENS_18_Mod_range_hashingELb1EE7_S_cgetERKS2_
	.def	__ZNSt8__detail21_Hashtable_ebo_helperILi2ENS_18_Mod_range_hashingELb1EE7_S_cgetERKS2_;	.scl	2;	.type	32;	.endef
__ZNSt8__detail21_Hashtable_ebo_helperILi2ENS_18_Mod_range_hashingELb1EE7_S_cgetERKS2_:
	pushl	%ebp
	movl	%esp, %ebp
	movl	8(%ebp), %eax
	popl	%ebp
	ret
	.section	.text$_ZNKSt8equal_toIiEclERKiS2_,"x"
	.linkonce discard
	.align 2
	.globl	__ZNKSt8equal_toIiEclERKiS2_
	.def	__ZNKSt8equal_toIiEclERKiS2_;	.scl	2;	.type	32;	.endef
__ZNKSt8equal_toIiEclERKiS2_:
	pushl	%ebp
	movl	%esp, %ebp
	subl	$4, %esp
	movl	%ecx, -4(%ebp)
	movl	8(%ebp), %eax
	movl	(%eax), %edx
	movl	12(%ebp), %eax
	movl	(%eax), %eax
	cmpl	%eax, %edx
	sete	%al
	leave
	ret	$8
	.section	.text$_ZNSt8__detail13_Equal_helperIiSt4pairIKiS1_IiiEENS_10_Select1stESt8equal_toIiEjLb0EE9_S_equalsERKS7_RKS5_RS2_jPNS_10_Hash_nodeIS4_Lb0EEE,"x"
	.linkonce discard
	.globl	__ZNSt8__detail13_Equal_helperIiSt4pairIKiS1_IiiEENS_10_Select1stESt8equal_toIiEjLb0EE9_S_equalsERKS7_RKS5_RS2_jPNS_10_Hash_nodeIS4_Lb0EEE
	.def	__ZNSt8__detail13_Equal_helperIiSt4pairIKiS1_IiiEENS_10_Select1stESt8equal_toIiEjLb0EE9_S_equalsERKS7_RKS5_RS2_jPNS_10_Hash_nodeIS4_Lb0EEE;	.scl	2;	.type	32;	.endef
__ZNSt8__detail13_Equal_helperIiSt4pairIKiS1_IiiEENS_10_Select1stESt8equal_toIiEjLb0EE9_S_equalsERKS7_RKS5_RS2_jPNS_10_Hash_nodeIS4_Lb0EEE:
	pushl	%ebp
	movl	%esp, %ebp
	subl	$24, %esp
	movl	24(%ebp), %eax
	movl	%eax, %ecx
	call	__ZNSt8__detail21_Hash_node_value_baseISt4pairIKiS1_IiiEEE4_M_vEv
	movl	%eax, %edx
	movl	12(%ebp), %eax
	movl	%edx, (%esp)
	movl	%eax, %ecx
	call	__ZNKSt8__detail10_Select1stclIRSt4pairIKiS2_IiiEEEEDTcl3getILi0EEcl7forwardIT_Efp_EEEOS7_
	subl	$4, %esp
	movl	%eax, 4(%esp)
	movl	16(%ebp), %eax
	movl	%eax, (%esp)
	movl	8(%ebp), %ecx
	call	__ZNKSt8equal_toIiEclERKiS2_
	subl	$8, %esp
	leave
	ret
	.section	.text$_ZNKSt8__detail15_Hashtable_baseIiSt4pairIKiS1_IiiEENS_10_Select1stESt8equal_toIiESt4hashIiENS_18_Mod_range_hashingENS_20_Default_ranged_hashENS_17_Hashtable_traitsILb0ELb0ELb1EEEE5_M_eqEv,"x"
	.linkonce discard
	.align 2
	.globl	__ZNKSt8__detail15_Hashtable_baseIiSt4pairIKiS1_IiiEENS_10_Select1stESt8equal_toIiESt4hashIiENS_18_Mod_range_hashingENS_20_Default_ranged_hashENS_17_Hashtable_traitsILb0ELb0ELb1EEEE5_M_eqEv
	.def	__ZNKSt8__detail15_Hashtable_baseIiSt4pairIKiS1_IiiEENS_10_Select1stESt8equal_toIiESt4hashIiENS_18_Mod_range_hashingENS_20_Default_ranged_hashENS_17_Hashtable_traitsILb0ELb0ELb1EEEE5_M_eqEv;	.scl	2;	.type	32;	.endef
__ZNKSt8__detail15_Hashtable_baseIiSt4pairIKiS1_IiiEENS_10_Select1stESt8equal_toIiESt4hashIiENS_18_Mod_range_hashingENS_20_Default_ranged_hashENS_17_Hashtable_traitsILb0ELb0ELb1EEEE5_M_eqEv:
	pushl	%ebp
	movl	%esp, %ebp
	subl	$40, %esp
	movl	%ecx, -12(%ebp)
	movl	-12(%ebp), %eax
	movl	%eax, (%esp)
	call	__ZNSt8__detail21_Hashtable_ebo_helperILi0ESt8equal_toIiELb1EE7_S_cgetERKS3_
	leave
	ret
	.section	.text$_ZNKSt8__detail15_Hash_code_baseIiSt4pairIKiS1_IiiEENS_10_Select1stESt4hashIiENS_18_Mod_range_hashingENS_20_Default_ranged_hashELb0EE10_M_extractEv,"x"
	.linkonce discard
	.align 2
	.globl	__ZNKSt8__detail15_Hash_code_baseIiSt4pairIKiS1_IiiEENS_10_Select1stESt4hashIiENS_18_Mod_range_hashingENS_20_Default_ranged_hashELb0EE10_M_extractEv
	.def	__ZNKSt8__detail15_Hash_code_baseIiSt4pairIKiS1_IiiEENS_10_Select1stESt4hashIiENS_18_Mod_range_hashingENS_20_Default_ranged_hashELb0EE10_M_extractEv;	.scl	2;	.type	32;	.endef
__ZNKSt8__detail15_Hash_code_baseIiSt4pairIKiS1_IiiEENS_10_Select1stESt4hashIiENS_18_Mod_range_hashingENS_20_Default_ranged_hashELb0EE10_M_extractEv:
	pushl	%ebp
	movl	%esp, %ebp
	subl	$40, %esp
	movl	%ecx, -12(%ebp)
	movl	-12(%ebp), %eax
	movl	%eax, (%esp)
	call	__ZNSt8__detail21_Hashtable_ebo_helperILi0ENS_10_Select1stELb1EE7_S_cgetERKS2_
	leave
	ret
	.section	.text$_ZSt7forwardIRKSt4pairIKiS0_IiiEEEOT_RNSt16remove_referenceIS6_E4typeE,"x"
	.linkonce discard
	.globl	__ZSt7forwardIRKSt4pairIKiS0_IiiEEEOT_RNSt16remove_referenceIS6_E4typeE
	.def	__ZSt7forwardIRKSt4pairIKiS0_IiiEEEOT_RNSt16remove_referenceIS6_E4typeE;	.scl	2;	.type	32;	.endef
__ZSt7forwardIRKSt4pairIKiS0_IiiEEEOT_RNSt16remove_referenceIS6_E4typeE:
	pushl	%ebp
	movl	%esp, %ebp
	movl	8(%ebp), %eax
	popl	%ebp
	ret
	.section	.text$_ZNSt10__pair_getILj0EE11__const_getIKiSt4pairIiiEEERKT_RKS3_IS5_T0_E,"x"
	.linkonce discard
	.globl	__ZNSt10__pair_getILj0EE11__const_getIKiSt4pairIiiEEERKT_RKS3_IS5_T0_E
	.def	__ZNSt10__pair_getILj0EE11__const_getIKiSt4pairIiiEEERKT_RKS3_IS5_T0_E;	.scl	2;	.type	32;	.endef
__ZNSt10__pair_getILj0EE11__const_getIKiSt4pairIiiEEERKT_RKS3_IS5_T0_E:
	pushl	%ebp
	movl	%esp, %ebp
	movl	8(%ebp), %eax
	popl	%ebp
	ret
	.section	.text$_ZSt3getILj0EKiSt4pairIiiEERKNSt13tuple_elementIXT_ES1_IT0_T1_EE4typeERKS6_,"x"
	.linkonce discard
	.globl	__ZSt3getILj0EKiSt4pairIiiEERKNSt13tuple_elementIXT_ES1_IT0_T1_EE4typeERKS6_
	.def	__ZSt3getILj0EKiSt4pairIiiEERKNSt13tuple_elementIXT_ES1_IT0_T1_EE4typeERKS6_;	.scl	2;	.type	32;	.endef
__ZSt3getILj0EKiSt4pairIiiEERKNSt13tuple_elementIXT_ES1_IT0_T1_EE4typeERKS6_:
	pushl	%ebp
	movl	%esp, %ebp
	subl	$4, %esp
	movl	8(%ebp), %eax
	movl	%eax, (%esp)
	call	__ZNSt10__pair_getILj0EE11__const_getIKiSt4pairIiiEEERKT_RKS3_IS5_T0_E
	leave
	ret
	.section	.text$_ZNKSt8__detail15_Hash_code_baseIiSt4pairIKiS1_IiiEENS_10_Select1stESt4hashIiENS_18_Mod_range_hashingENS_20_Default_ranged_hashELb0EE15_M_bucket_indexEPKNS_10_Hash_nodeIS4_Lb0EEEj,"x"
	.linkonce discard
	.align 2
	.globl	__ZNKSt8__detail15_Hash_code_baseIiSt4pairIKiS1_IiiEENS_10_Select1stESt4hashIiENS_18_Mod_range_hashingENS_20_Default_ranged_hashELb0EE15_M_bucket_indexEPKNS_10_Hash_nodeIS4_Lb0EEEj
	.def	__ZNKSt8__detail15_Hash_code_baseIiSt4pairIKiS1_IiiEENS_10_Select1stESt4hashIiENS_18_Mod_range_hashingENS_20_Default_ranged_hashELb0EE15_M_bucket_indexEPKNS_10_Hash_nodeIS4_Lb0EEEj;	.scl	2;	.type	32;	.endef
__ZNKSt8__detail15_Hash_code_baseIiSt4pairIKiS1_IiiEENS_10_Select1stESt4hashIiENS_18_Mod_range_hashingENS_20_Default_ranged_hashELb0EE15_M_bucket_indexEPKNS_10_Hash_nodeIS4_Lb0EEEj:
	pushl	%ebp
	movl	%esp, %ebp
	pushl	%ebx
	subl	$36, %esp
	movl	%ecx, -12(%ebp)
	movl	8(%ebp), %eax
	movl	%eax, %ecx
	call	__ZNKSt8__detail21_Hash_node_value_baseISt4pairIKiS1_IiiEEE4_M_vEv
	movl	%eax, %ebx
	movl	-12(%ebp), %eax
	movl	%eax, %ecx
	call	__ZNKSt8__detail15_Hash_code_baseIiSt4pairIKiS1_IiiEENS_10_Select1stESt4hashIiENS_18_Mod_range_hashingENS_20_Default_ranged_hashELb0EE10_M_extractEv
	movl	%ebx, (%esp)
	movl	%eax, %ecx
	call	__ZNKSt8__detail10_Select1stclIRKSt4pairIKiS2_IiiEEEEDTcl3getILi0EEcl7forwardIT_Efp_EEEOS8_
	subl	$4, %esp
	movl	(%eax), %ebx
	movl	-12(%ebp), %eax
	movl	%eax, %ecx
	call	__ZNKSt8__detail15_Hash_code_baseIiSt4pairIKiS1_IiiEENS_10_Select1stESt4hashIiENS_18_Mod_range_hashingENS_20_Default_ranged_hashELb0EE5_M_h1Ev
	movl	%ebx, (%esp)
	movl	%eax, %ecx
	call	__ZNKSt4hashIiEclEi
	subl	$4, %esp
	movl	%eax, %ebx
	movl	-12(%ebp), %eax
	movl	%eax, %ecx
	call	__ZNKSt8__detail15_Hash_code_baseIiSt4pairIKiS1_IiiEENS_10_Select1stESt4hashIiENS_18_Mod_range_hashingENS_20_Default_ranged_hashELb0EE5_M_h2Ev
	movl	%eax, %edx
	movl	12(%ebp), %eax
	movl	%eax, 4(%esp)
	movl	%ebx, (%esp)
	movl	%edx, %ecx
	call	__ZNKSt8__detail18_Mod_range_hashingclEjj
	subl	$8, %esp
	movl	-4(%ebp), %ebx
	leave
	ret	$8
	.section	.text$_ZNK9__gnu_cxx13new_allocatorINSt8__detail10_Hash_nodeISt4pairIKiS3_IiiEELb0EEEE8max_sizeEv,"x"
	.linkonce discard
	.align 2
	.globl	__ZNK9__gnu_cxx13new_allocatorINSt8__detail10_Hash_nodeISt4pairIKiS3_IiiEELb0EEEE8max_sizeEv
	.def	__ZNK9__gnu_cxx13new_allocatorINSt8__detail10_Hash_nodeISt4pairIKiS3_IiiEELb0EEEE8max_sizeEv;	.scl	2;	.type	32;	.endef
__ZNK9__gnu_cxx13new_allocatorINSt8__detail10_Hash_nodeISt4pairIKiS3_IiiEELb0EEEE8max_sizeEv:
	pushl	%ebp
	movl	%esp, %ebp
	subl	$4, %esp
	movl	%ecx, -4(%ebp)
	movl	$268435455, %eax
	leave
	ret
	.section	.text$_ZN9__gnu_cxx16__aligned_bufferISt4pairIKiS1_IiiEEE7_M_addrEv,"x"
	.linkonce discard
	.align 2
	.globl	__ZN9__gnu_cxx16__aligned_bufferISt4pairIKiS1_IiiEEE7_M_addrEv
	.def	__ZN9__gnu_cxx16__aligned_bufferISt4pairIKiS1_IiiEEE7_M_addrEv;	.scl	2;	.type	32;	.endef
__ZN9__gnu_cxx16__aligned_bufferISt4pairIKiS1_IiiEEE7_M_addrEv:
	pushl	%ebp
	movl	%esp, %ebp
	subl	$4, %esp
	movl	%ecx, -4(%ebp)
	movl	-4(%ebp), %eax
	leave
	ret
	.section	.text$_ZNSt10_Head_baseILj0ERKiLb0EE7_M_headERS2_,"x"
	.linkonce discard
	.globl	__ZNSt10_Head_baseILj0ERKiLb0EE7_M_headERS2_
	.def	__ZNSt10_Head_baseILj0ERKiLb0EE7_M_headERS2_;	.scl	2;	.type	32;	.endef
__ZNSt10_Head_baseILj0ERKiLb0EE7_M_headERS2_:
	pushl	%ebp
	movl	%esp, %ebp
	movl	8(%ebp), %eax
	movl	(%eax), %eax
	popl	%ebp
	ret
	.section	.text$_ZNSt11_Tuple_implILj0EJRKiEE7_M_headERS2_,"x"
	.linkonce discard
	.globl	__ZNSt11_Tuple_implILj0EJRKiEE7_M_headERS2_
	.def	__ZNSt11_Tuple_implILj0EJRKiEE7_M_headERS2_;	.scl	2;	.type	32;	.endef
__ZNSt11_Tuple_implILj0EJRKiEE7_M_headERS2_:
	pushl	%ebp
	movl	%esp, %ebp
	subl	$4, %esp
	movl	8(%ebp), %eax
	movl	%eax, (%esp)
	call	__ZNSt10_Head_baseILj0ERKiLb0EE7_M_headERS2_
	leave
	ret
	.weak	__ZNSt11_Tuple_implILj0EIRKiEE7_M_headERS2_
	.def	__ZNSt11_Tuple_implILj0EIRKiEE7_M_headERS2_;	.scl	2;	.type	32;	.endef
	.set	__ZNSt11_Tuple_implILj0EIRKiEE7_M_headERS2_,__ZNSt11_Tuple_implILj0EJRKiEE7_M_headERS2_
	.section	.text$_ZSt7forwardIRKiEOT_RNSt16remove_referenceIS2_E4typeE,"x"
	.linkonce discard
	.globl	__ZSt7forwardIRKiEOT_RNSt16remove_referenceIS2_E4typeE
	.def	__ZSt7forwardIRKiEOT_RNSt16remove_referenceIS2_E4typeE;	.scl	2;	.type	32;	.endef
__ZSt7forwardIRKiEOT_RNSt16remove_referenceIS2_E4typeE:
	pushl	%ebp
	movl	%esp, %ebp
	movl	8(%ebp), %eax
	popl	%ebp
	ret
	.section	.text$_ZNSt11_Tuple_implILj0EJRKiEEC2EOS2_,"x"
	.linkonce discard
	.align 2
	.globl	__ZNSt11_Tuple_implILj0EJRKiEEC2EOS2_
	.def	__ZNSt11_Tuple_implILj0EJRKiEEC2EOS2_;	.scl	2;	.type	32;	.endef
__ZNSt11_Tuple_implILj0EJRKiEEC2EOS2_:
	pushl	%ebp
	movl	%esp, %ebp
	subl	$8, %esp
	movl	%ecx, -4(%ebp)
	movl	8(%ebp), %eax
	movl	%eax, (%esp)
	call	__ZNSt11_Tuple_implILj0EJRKiEE7_M_headERS2_
	movl	%eax, (%esp)
	call	__ZSt7forwardIRKiEOT_RNSt16remove_referenceIS2_E4typeE
	movl	%eax, %edx
	movl	-4(%ebp), %eax
	movl	%edx, (%esp)
	movl	%eax, %ecx
	call	__ZNSt10_Head_baseILj0ERKiLb0EEC2ES1_
	subl	$4, %esp
	nop
	leave
	ret	$4
	.weak	__ZNSt11_Tuple_implILj0EIRKiEEC2EOS2_
	.def	__ZNSt11_Tuple_implILj0EIRKiEEC2EOS2_;	.scl	2;	.type	32;	.endef
	.set	__ZNSt11_Tuple_implILj0EIRKiEEC2EOS2_,__ZNSt11_Tuple_implILj0EJRKiEEC2EOS2_
	.section	.text$_ZNSt5tupleIJRKiEEC1EOS2_,"x"
	.linkonce discard
	.align 2
	.globl	__ZNSt5tupleIJRKiEEC1EOS2_
	.def	__ZNSt5tupleIJRKiEEC1EOS2_;	.scl	2;	.type	32;	.endef
__ZNSt5tupleIJRKiEEC1EOS2_:
	pushl	%ebp
	movl	%esp, %ebp
	subl	$8, %esp
	movl	%ecx, -4(%ebp)
	movl	8(%ebp), %edx
	movl	-4(%ebp), %eax
	movl	%edx, (%esp)
	movl	%eax, %ecx
	call	__ZNSt11_Tuple_implILj0EJRKiEEC2EOS2_
	subl	$4, %esp
	nop
	leave
	ret	$4
	.weak	__ZNSt5tupleIIRKiEEC1EOS2_
	.def	__ZNSt5tupleIIRKiEEC1EOS2_;	.scl	2;	.type	32;	.endef
	.set	__ZNSt5tupleIIRKiEEC1EOS2_,__ZNSt5tupleIJRKiEEC1EOS2_
	.section	.text$_ZN9__gnu_cxx13new_allocatorISt4pairIKiS1_IiiEEE9constructIS4_JRKSt21piecewise_construct_tSt5tupleIJRS2_EESA_IJEEEEEvPT_DpOT0_,"x"
	.linkonce discard
	.align 2
	.globl	__ZN9__gnu_cxx13new_allocatorISt4pairIKiS1_IiiEEE9constructIS4_JRKSt21piecewise_construct_tSt5tupleIJRS2_EESA_IJEEEEEvPT_DpOT0_
	.def	__ZN9__gnu_cxx13new_allocatorISt4pairIKiS1_IiiEEE9constructIS4_JRKSt21piecewise_construct_tSt5tupleIJRS2_EESA_IJEEEEEvPT_DpOT0_;	.scl	2;	.type	32;	.endef
__ZN9__gnu_cxx13new_allocatorISt4pairIKiS1_IiiEEE9constructIS4_JRKSt21piecewise_construct_tSt5tupleIJRS2_EESA_IJEEEEEvPT_DpOT0_:
	pushl	%ebp
	movl	%esp, %ebp
	pushl	%edi
	pushl	%esi
	pushl	%ebx
	subl	$124, %esp
	movl	%ecx, -44(%ebp)
	movl	$___gxx_personality_sj0, -72(%ebp)
	movl	$LLSDA12815, -68(%ebp)
	leal	-64(%ebp), %eax
	leal	-24(%ebp), %ebx
	movl	%ebx, (%eax)
	movl	$L443, %edx
	movl	%edx, 4(%eax)
	movl	%esp, 8(%eax)
	leal	-96(%ebp), %eax
	movl	%eax, (%esp)
	call	__Unwind_SjLj_Register
	movl	12(%ebp), %eax
	movl	%eax, (%esp)
	call	__ZSt7forwardIRKSt21piecewise_construct_tEOT_RNSt16remove_referenceIS3_E4typeE
	movzbl	-104(%ebp), %eax
	movb	%al, -33(%ebp)
	movl	16(%ebp), %eax
	movl	%eax, (%esp)
	call	__ZSt7forwardISt5tupleIJRKiEEEOT_RNSt16remove_referenceIS4_E4typeE
	movl	%eax, %edx
	leal	-32(%ebp), %eax
	movl	%edx, (%esp)
	movl	%eax, %ecx
	call	__ZNSt5tupleIJRKiEEC1EOS2_
	subl	$4, %esp
	leal	-32(%ebp), %eax
	movl	%eax, -104(%ebp)
	movl	20(%ebp), %eax
	movl	%eax, (%esp)
	call	__ZSt7forwardISt5tupleIJEEEOT_RNSt16remove_referenceIS2_E4typeE
	movzbl	-100(%ebp), %eax
	movb	%al, -25(%ebp)
	movl	8(%ebp), %eax
	movl	%eax, -108(%ebp)
	movl	%eax, 4(%esp)
	movl	$12, (%esp)
	call	__ZnwjPv
	movl	%eax, -100(%ebp)
	testl	%eax, %eax
	je	L445
	movzbl	-25(%ebp), %eax
	movb	%al, 8(%esp)
	movl	-104(%ebp), %eax
	movl	%eax, 4(%esp)
	movzbl	-33(%ebp), %eax
	movb	%al, (%esp)
	movl	$1, -92(%ebp)
	movl	-100(%ebp), %ecx
	call	__ZNSt4pairIKiS_IiiEEC1IJRS0_EJEEESt21piecewise_construct_tSt5tupleIJDpT_EES6_IJDpT0_EE
	subl	$12, %esp
	jmp	L445
L443:
	leal	24(%ebp), %ebp
	movl	-88(%ebp), %eax
	movl	%eax, -104(%ebp)
	movl	-108(%ebp), %esi
	movl	%esi, 4(%esp)
	movl	-100(%ebp), %edi
	movl	%edi, (%esp)
	call	__ZdlPvS_
	movl	-104(%ebp), %eax
	movl	%eax, (%esp)
	movl	$-1, -92(%ebp)
	call	__Unwind_SjLj_Resume
L445:
	nop
	leal	-96(%ebp), %eax
	movl	%eax, (%esp)
	call	__Unwind_SjLj_Unregister
	leal	-12(%ebp), %esp
	popl	%ebx
	popl	%esi
	popl	%edi
	popl	%ebp
	ret	$16
	.section	.gcc_except_table,"w"
LLSDA12815:
	.byte	0xff
	.byte	0xff
	.byte	0x1
	.uleb128 LLSDACSE12815-LLSDACSB12815
LLSDACSB12815:
	.uleb128 0
	.uleb128 0
LLSDACSE12815:
	.section	.text$_ZN9__gnu_cxx13new_allocatorISt4pairIKiS1_IiiEEE9constructIS4_JRKSt21piecewise_construct_tSt5tupleIJRS2_EESA_IJEEEEEvPT_DpOT0_,"x"
	.linkonce discard
	.weak	__ZN9__gnu_cxx13new_allocatorISt4pairIKiS1_IiiEEE9constructIS4_IRKSt21piecewise_construct_tSt5tupleIIRS2_EESA_IIEEEEEvPT_DpOT0_
	.def	__ZN9__gnu_cxx13new_allocatorISt4pairIKiS1_IiiEEE9constructIS4_IRKSt21piecewise_construct_tSt5tupleIIRS2_EESA_IIEEEEEvPT_DpOT0_;	.scl	2;	.type	32;	.endef
	.set	__ZN9__gnu_cxx13new_allocatorISt4pairIKiS1_IiiEEE9constructIS4_IRKSt21piecewise_construct_tSt5tupleIIRS2_EESA_IIEEEEEvPT_DpOT0_,__ZN9__gnu_cxx13new_allocatorISt4pairIKiS1_IiiEEE9constructIS4_JRKSt21piecewise_construct_tSt5tupleIJRS2_EESA_IJEEEEEvPT_DpOT0_
	.section	.text$_ZNSt10_HashtableIiSt4pairIKiS0_IiiEESaIS3_ENSt8__detail10_Select1stESt8equal_toIiESt4hashIiENS5_18_Mod_range_hashingENS5_20_Default_ranged_hashENS5_20_Prime_rehash_policyENS5_17_Hashtable_traitsILb0ELb0ELb1EEEE19_M_allocate_bucketsEj,"x"
	.linkonce discard
	.align 2
	.globl	__ZNSt10_HashtableIiSt4pairIKiS0_IiiEESaIS3_ENSt8__detail10_Select1stESt8equal_toIiESt4hashIiENS5_18_Mod_range_hashingENS5_20_Default_ranged_hashENS5_20_Prime_rehash_policyENS5_17_Hashtable_traitsILb0ELb0ELb1EEEE19_M_allocate_bucketsEj
	.def	__ZNSt10_HashtableIiSt4pairIKiS0_IiiEESaIS3_ENSt8__detail10_Select1stESt8equal_toIiESt4hashIiENS5_18_Mod_range_hashingENS5_20_Default_ranged_hashENS5_20_Prime_rehash_policyENS5_17_Hashtable_traitsILb0ELb0ELb1EEEE19_M_allocate_bucketsEj;	.scl	2;	.type	32;	.endef
__ZNSt10_HashtableIiSt4pairIKiS0_IiiEESaIS3_ENSt8__detail10_Select1stESt8equal_toIiESt4hashIiENS5_18_Mod_range_hashingENS5_20_Default_ranged_hashENS5_20_Prime_rehash_policyENS5_17_Hashtable_traitsILb0ELb0ELb1EEEE19_M_allocate_bucketsEj:
	pushl	%ebp
	movl	%esp, %ebp
	subl	$40, %esp
	movl	%ecx, -12(%ebp)
	cmpl	$1, 8(%ebp)
	sete	%al
	movzbl	%al, %eax
	testl	%eax, %eax
	je	L447
	movl	-12(%ebp), %eax
	movl	$0, 24(%eax)
	movl	-12(%ebp), %eax
	addl	$24, %eax
	jmp	L448
L447:
	movl	-12(%ebp), %eax
	movl	8(%ebp), %edx
	movl	%edx, (%esp)
	movl	%eax, %ecx
	call	__ZNSt8__detail16_Hashtable_allocISaINS_10_Hash_nodeISt4pairIKiS2_IiiEELb0EEEEE19_M_allocate_bucketsEj
	subl	$4, %esp
L448:
	leave
	ret	$4
	.section	.text$_ZSt19__iterator_categoryIPcENSt15iterator_traitsIT_E17iterator_categoryERKS2_,"x"
	.linkonce discard
	.globl	__ZSt19__iterator_categoryIPcENSt15iterator_traitsIT_E17iterator_categoryERKS2_
	.def	__ZSt19__iterator_categoryIPcENSt15iterator_traitsIT_E17iterator_categoryERKS2_;	.scl	2;	.type	32;	.endef
__ZSt19__iterator_categoryIPcENSt15iterator_traitsIT_E17iterator_categoryERKS2_:
	pushl	%ebp
	movl	%esp, %ebp
	popl	%ebp
	ret
	.section	.text$_ZSt10__distanceIPcENSt15iterator_traitsIT_E15difference_typeES2_S2_St26random_access_iterator_tag,"x"
	.linkonce discard
	.globl	__ZSt10__distanceIPcENSt15iterator_traitsIT_E15difference_typeES2_S2_St26random_access_iterator_tag
	.def	__ZSt10__distanceIPcENSt15iterator_traitsIT_E15difference_typeES2_S2_St26random_access_iterator_tag;	.scl	2;	.type	32;	.endef
__ZSt10__distanceIPcENSt15iterator_traitsIT_E15difference_typeES2_S2_St26random_access_iterator_tag:
	pushl	%ebp
	movl	%esp, %ebp
	movl	12(%ebp), %edx
	movl	8(%ebp), %eax
	subl	%eax, %edx
	movl	%edx, %eax
	popl	%ebp
	ret
	.section	.text$_ZNK9__gnu_cxx13new_allocatorIiE8max_sizeEv,"x"
	.linkonce discard
	.align 2
	.globl	__ZNK9__gnu_cxx13new_allocatorIiE8max_sizeEv
	.def	__ZNK9__gnu_cxx13new_allocatorIiE8max_sizeEv;	.scl	2;	.type	32;	.endef
__ZNK9__gnu_cxx13new_allocatorIiE8max_sizeEv:
	pushl	%ebp
	movl	%esp, %ebp
	subl	$4, %esp
	movl	%ecx, -4(%ebp)
	movl	$1073741823, %eax
	leave
	ret
	.section	.text$_ZSt12__niter_baseIPiENSt11_Niter_baseIT_E13iterator_typeES2_,"x"
	.linkonce discard
	.globl	__ZSt12__niter_baseIPiENSt11_Niter_baseIT_E13iterator_typeES2_
	.def	__ZSt12__niter_baseIPiENSt11_Niter_baseIT_E13iterator_typeES2_;	.scl	2;	.type	32;	.endef
__ZSt12__niter_baseIPiENSt11_Niter_baseIT_E13iterator_typeES2_:
	pushl	%ebp
	movl	%esp, %ebp
	subl	$24, %esp
	movl	8(%ebp), %eax
	movl	%eax, (%esp)
	call	__ZNSt10_Iter_baseIPiLb0EE7_S_baseES0_
	leave
	ret
	.section	.text$_ZSt10__fill_n_aIPijiEN9__gnu_cxx11__enable_ifIXsrSt11__is_scalarIT1_E7__valueET_E6__typeES6_T0_RKS4_,"x"
	.linkonce discard
	.globl	__ZSt10__fill_n_aIPijiEN9__gnu_cxx11__enable_ifIXsrSt11__is_scalarIT1_E7__valueET_E6__typeES6_T0_RKS4_
	.def	__ZSt10__fill_n_aIPijiEN9__gnu_cxx11__enable_ifIXsrSt11__is_scalarIT1_E7__valueET_E6__typeES6_T0_RKS4_;	.scl	2;	.type	32;	.endef
__ZSt10__fill_n_aIPijiEN9__gnu_cxx11__enable_ifIXsrSt11__is_scalarIT1_E7__valueET_E6__typeES6_T0_RKS4_:
	pushl	%ebp
	movl	%esp, %ebp
	subl	$16, %esp
	movl	16(%ebp), %eax
	movl	(%eax), %eax
	movl	%eax, -8(%ebp)
	movl	12(%ebp), %eax
	movl	%eax, -4(%ebp)
L459:
	cmpl	$0, -4(%ebp)
	je	L458
	movl	8(%ebp), %eax
	movl	-8(%ebp), %edx
	movl	%edx, (%eax)
	subl	$1, -4(%ebp)
	addl	$4, 8(%ebp)
	jmp	L459
L458:
	movl	8(%ebp), %eax
	leave
	ret
	.section	.text$_ZN9__gnu_cxx13new_allocatorISt4pairIKiS1_IiiEEE7destroyIS4_EEvPT_,"x"
	.linkonce discard
	.align 2
	.globl	__ZN9__gnu_cxx13new_allocatorISt4pairIKiS1_IiiEEE7destroyIS4_EEvPT_
	.def	__ZN9__gnu_cxx13new_allocatorISt4pairIKiS1_IiiEEE7destroyIS4_EEvPT_;	.scl	2;	.type	32;	.endef
__ZN9__gnu_cxx13new_allocatorISt4pairIKiS1_IiiEEE7destroyIS4_EEvPT_:
	pushl	%ebp
	movl	%esp, %ebp
	subl	$4, %esp
	movl	%ecx, -4(%ebp)
	nop
	leave
	ret	$4
	.section	.text$_ZSt11__addressofIPNSt8__detail15_Hash_node_baseEEPT_RS3_,"x"
	.linkonce discard
	.globl	__ZSt11__addressofIPNSt8__detail15_Hash_node_baseEEPT_RS3_
	.def	__ZSt11__addressofIPNSt8__detail15_Hash_node_baseEEPT_RS3_;	.scl	2;	.type	32;	.endef
__ZSt11__addressofIPNSt8__detail15_Hash_node_baseEEPT_RS3_:
	pushl	%ebp
	movl	%esp, %ebp
	movl	8(%ebp), %eax
	popl	%ebp
	ret
	.section	.text$_ZNSt8__detail21_Hashtable_ebo_helperILi0ESt8equal_toIiELb1EE7_S_cgetERKS3_,"x"
	.linkonce discard
	.globl	__ZNSt8__detail21_Hashtable_ebo_helperILi0ESt8equal_toIiELb1EE7_S_cgetERKS3_
	.def	__ZNSt8__detail21_Hashtable_ebo_helperILi0ESt8equal_toIiELb1EE7_S_cgetERKS3_;	.scl	2;	.type	32;	.endef
__ZNSt8__detail21_Hashtable_ebo_helperILi0ESt8equal_toIiELb1EE7_S_cgetERKS3_:
	pushl	%ebp
	movl	%esp, %ebp
	movl	8(%ebp), %eax
	popl	%ebp
	ret
	.section	.text$_ZNSt8__detail21_Hashtable_ebo_helperILi0ENS_10_Select1stELb1EE7_S_cgetERKS2_,"x"
	.linkonce discard
	.globl	__ZNSt8__detail21_Hashtable_ebo_helperILi0ENS_10_Select1stELb1EE7_S_cgetERKS2_
	.def	__ZNSt8__detail21_Hashtable_ebo_helperILi0ENS_10_Select1stELb1EE7_S_cgetERKS2_;	.scl	2;	.type	32;	.endef
__ZNSt8__detail21_Hashtable_ebo_helperILi0ENS_10_Select1stELb1EE7_S_cgetERKS2_:
	pushl	%ebp
	movl	%esp, %ebp
	movl	8(%ebp), %eax
	popl	%ebp
	ret
	.section	.text$_ZNKSt8__detail21_Hash_node_value_baseISt4pairIKiS1_IiiEEE4_M_vEv,"x"
	.linkonce discard
	.align 2
	.globl	__ZNKSt8__detail21_Hash_node_value_baseISt4pairIKiS1_IiiEEE4_M_vEv
	.def	__ZNKSt8__detail21_Hash_node_value_baseISt4pairIKiS1_IiiEEE4_M_vEv;	.scl	2;	.type	32;	.endef
__ZNKSt8__detail21_Hash_node_value_baseISt4pairIKiS1_IiiEEE4_M_vEv:
	pushl	%ebp
	movl	%esp, %ebp
	subl	$24, %esp
	movl	%ecx, -12(%ebp)
	movl	-12(%ebp), %eax
	movl	%eax, %ecx
	call	__ZNKSt8__detail21_Hash_node_value_baseISt4pairIKiS1_IiiEEE9_M_valptrEv
	leave
	ret
	.section	.text$_ZNKSt8__detail10_Select1stclIRKSt4pairIKiS2_IiiEEEEDTcl3getILi0EEcl7forwardIT_Efp_EEEOS8_,"x"
	.linkonce discard
	.align 2
	.globl	__ZNKSt8__detail10_Select1stclIRKSt4pairIKiS2_IiiEEEEDTcl3getILi0EEcl7forwardIT_Efp_EEEOS8_
	.def	__ZNKSt8__detail10_Select1stclIRKSt4pairIKiS2_IiiEEEEDTcl3getILi0EEcl7forwardIT_Efp_EEEOS8_;	.scl	2;	.type	32;	.endef
__ZNKSt8__detail10_Select1stclIRKSt4pairIKiS2_IiiEEEEDTcl3getILi0EEcl7forwardIT_Efp_EEEOS8_:
	pushl	%ebp
	movl	%esp, %ebp
	subl	$8, %esp
	movl	%ecx, -4(%ebp)
	movl	8(%ebp), %eax
	movl	%eax, (%esp)
	call	__ZSt7forwardIRKSt4pairIKiS0_IiiEEEOT_RNSt16remove_referenceIS6_E4typeE
	movl	%eax, (%esp)
	call	__ZSt3getILj0EKiSt4pairIiiEERKNSt13tuple_elementIXT_ES1_IT0_T1_EE4typeERKS6_
	leave
	ret	$4
	.section	.text$_ZNSt4pairIKiS_IiiEEC1IJRS0_EJEEESt21piecewise_construct_tSt5tupleIJDpT_EES6_IJDpT0_EE,"x"
	.linkonce discard
	.align 2
	.globl	__ZNSt4pairIKiS_IiiEEC1IJRS0_EJEEESt21piecewise_construct_tSt5tupleIJDpT_EES6_IJDpT0_EE
	.def	__ZNSt4pairIKiS_IiiEEC1IJRS0_EJEEESt21piecewise_construct_tSt5tupleIJDpT_EES6_IJDpT0_EE;	.scl	2;	.type	32;	.endef
__ZNSt4pairIKiS_IiiEEC1IJRS0_EJEEESt21piecewise_construct_tSt5tupleIJDpT_EES6_IJDpT0_EE:
	pushl	%ebp
	movl	%esp, %ebp
	pushl	%ebx
	subl	$52, %esp
	movl	%ecx, -28(%ebp)
	movl	-28(%ebp), %eax
	movb	%bl, 12(%esp)
	movb	%dl, 8(%esp)
	leal	16(%ebp), %edx
	movl	%edx, 4(%esp)
	movl	12(%ebp), %edx
	movl	%edx, (%esp)
	movl	%eax, %ecx
	call	__ZNSt4pairIKiS_IiiEEC1IJRS0_EJLj0EEJEJEEERSt5tupleIJDpT_EERS5_IJDpT1_EESt12_Index_tupleIJXspT0_EEESE_IJXspT2_EEE
	subl	$16, %esp
	nop
	movl	-4(%ebp), %ebx
	leave
	ret	$12
	.weak	__ZNSt4pairIKiS_IiiEEC1IIRS0_EIEEESt21piecewise_construct_tSt5tupleIIDpT_EES6_IIDpT0_EE
	.def	__ZNSt4pairIKiS_IiiEEC1IIRS0_EIEEESt21piecewise_construct_tSt5tupleIIDpT_EES6_IIDpT0_EE;	.scl	2;	.type	32;	.endef
	.set	__ZNSt4pairIKiS_IiiEEC1IIRS0_EIEEESt21piecewise_construct_tSt5tupleIIDpT_EES6_IIDpT0_EE,__ZNSt4pairIKiS_IiiEEC1IJRS0_EJEEESt21piecewise_construct_tSt5tupleIJDpT_EES6_IJDpT0_EE
	.section	.text$_ZNSt8__detail16_Hashtable_allocISaINS_10_Hash_nodeISt4pairIKiS2_IiiEELb0EEEEE19_M_allocate_bucketsEj,"x"
	.linkonce discard
	.align 2
	.globl	__ZNSt8__detail16_Hashtable_allocISaINS_10_Hash_nodeISt4pairIKiS2_IiiEELb0EEEEE19_M_allocate_bucketsEj
	.def	__ZNSt8__detail16_Hashtable_allocISaINS_10_Hash_nodeISt4pairIKiS2_IiiEELb0EEEEE19_M_allocate_bucketsEj;	.scl	2;	.type	32;	.endef
__ZNSt8__detail16_Hashtable_allocISaINS_10_Hash_nodeISt4pairIKiS2_IiiEELb0EEEEE19_M_allocate_bucketsEj:
	pushl	%ebp
	movl	%esp, %ebp
	pushl	%edi
	pushl	%esi
	pushl	%ebx
	subl	$108, %esp
	movl	%ecx, -44(%ebp)
	movl	$___gxx_personality_sj0, -72(%ebp)
	movl	$LLSDA12905, -68(%ebp)
	leal	-64(%ebp), %eax
	leal	-24(%ebp), %ebx
	movl	%ebx, (%eax)
	movl	$L476, %edx
	movl	%edx, 4(%eax)
	movl	%esp, 8(%eax)
	leal	-96(%ebp), %eax
	movl	%eax, (%esp)
	call	__Unwind_SjLj_Register
	movl	-44(%ebp), %eax
	movl	%eax, %ecx
	call	__ZNSt8__detail16_Hashtable_allocISaINS_10_Hash_nodeISt4pairIKiS2_IiiEELb0EEEEE17_M_node_allocatorEv
	movl	%eax, %edx
	leal	-33(%ebp), %eax
	movl	%edx, (%esp)
	movl	%eax, %ecx
	call	__ZNSaIPNSt8__detail15_Hash_node_baseEEC1INS_10_Hash_nodeISt4pairIKiS5_IiiEELb0EEEEERKSaIT_E
	subl	$4, %esp
	movl	8(%ebp), %eax
	movl	%eax, 4(%esp)
	leal	-33(%ebp), %eax
	movl	%eax, (%esp)
	movl	$1, -92(%ebp)
	call	__ZNSt16allocator_traitsISaIPNSt8__detail15_Hash_node_baseEEE8allocateERS3_j
	movl	%eax, -28(%ebp)
	movl	-28(%ebp), %eax
	movl	%eax, (%esp)
	call	__ZSt11__addressofIPNSt8__detail15_Hash_node_baseEEPT_RS3_
	movl	%eax, -32(%ebp)
	movl	8(%ebp), %eax
	leal	0(,%eax,4), %edx
	movl	-32(%ebp), %eax
	movl	%edx, 8(%esp)
	movl	$0, 4(%esp)
	movl	%eax, (%esp)
	call	_memset
	movl	-32(%ebp), %eax
	movl	%eax, -100(%ebp)
	leal	-33(%ebp), %eax
	movl	%eax, %ecx
	call	__ZNSaIPNSt8__detail15_Hash_node_baseEED1Ev
	movl	-100(%ebp), %eax
	movl	%eax, -100(%ebp)
	jmp	L478
L476:
	leal	24(%ebp), %ebp
	movl	-88(%ebp), %eax
	movl	%eax, -100(%ebp)
	leal	-33(%ebp), %eax
	movl	%eax, %ecx
	call	__ZNSaIPNSt8__detail15_Hash_node_baseEED1Ev
	movl	-100(%ebp), %eax
	movl	%eax, (%esp)
	movl	$-1, -92(%ebp)
	call	__Unwind_SjLj_Resume
L478:
	leal	-96(%ebp), %eax
	movl	%eax, (%esp)
	call	__Unwind_SjLj_Unregister
	movl	-100(%ebp), %eax
	leal	-12(%ebp), %esp
	popl	%ebx
	popl	%esi
	popl	%edi
	popl	%ebp
	ret	$4
	.section	.gcc_except_table,"w"
LLSDA12905:
	.byte	0xff
	.byte	0xff
	.byte	0x1
	.uleb128 LLSDACSE12905-LLSDACSB12905
LLSDACSB12905:
	.uleb128 0
	.uleb128 0
LLSDACSE12905:
	.section	.text$_ZNSt8__detail16_Hashtable_allocISaINS_10_Hash_nodeISt4pairIKiS2_IiiEELb0EEEEE19_M_allocate_bucketsEj,"x"
	.linkonce discard
	.section	.text$_ZNSt10_Iter_baseIPiLb0EE7_S_baseES0_,"x"
	.linkonce discard
	.globl	__ZNSt10_Iter_baseIPiLb0EE7_S_baseES0_
	.def	__ZNSt10_Iter_baseIPiLb0EE7_S_baseES0_;	.scl	2;	.type	32;	.endef
__ZNSt10_Iter_baseIPiLb0EE7_S_baseES0_:
	pushl	%ebp
	movl	%esp, %ebp
	movl	8(%ebp), %eax
	popl	%ebp
	ret
	.section	.text$_ZNKSt8__detail21_Hash_node_value_baseISt4pairIKiS1_IiiEEE9_M_valptrEv,"x"
	.linkonce discard
	.align 2
	.globl	__ZNKSt8__detail21_Hash_node_value_baseISt4pairIKiS1_IiiEEE9_M_valptrEv
	.def	__ZNKSt8__detail21_Hash_node_value_baseISt4pairIKiS1_IiiEEE9_M_valptrEv;	.scl	2;	.type	32;	.endef
__ZNKSt8__detail21_Hash_node_value_baseISt4pairIKiS1_IiiEEE9_M_valptrEv:
	pushl	%ebp
	movl	%esp, %ebp
	subl	$24, %esp
	movl	%ecx, -12(%ebp)
	movl	-12(%ebp), %eax
	addl	$4, %eax
	movl	%eax, %ecx
	call	__ZNK9__gnu_cxx16__aligned_bufferISt4pairIKiS1_IiiEEE6_M_ptrEv
	leave
	ret
	.section	.text$_ZSt12__get_helperILj0ERKiJEERT0_RSt11_Tuple_implIXT_EJS2_DpT1_EE,"x"
	.linkonce discard
	.globl	__ZSt12__get_helperILj0ERKiJEERT0_RSt11_Tuple_implIXT_EJS2_DpT1_EE
	.def	__ZSt12__get_helperILj0ERKiJEERT0_RSt11_Tuple_implIXT_EJS2_DpT1_EE;	.scl	2;	.type	32;	.endef
__ZSt12__get_helperILj0ERKiJEERT0_RSt11_Tuple_implIXT_EJS2_DpT1_EE:
	pushl	%ebp
	movl	%esp, %ebp
	subl	$4, %esp
	movl	8(%ebp), %eax
	movl	%eax, (%esp)
	call	__ZNSt11_Tuple_implILj0EJRKiEE7_M_headERS2_
	leave
	ret
	.weak	__ZSt12__get_helperILj0ERKiIEERT0_RSt11_Tuple_implIXT_EIS2_DpT1_EE
	.def	__ZSt12__get_helperILj0ERKiIEERT0_RSt11_Tuple_implIXT_EIS2_DpT1_EE;	.scl	2;	.type	32;	.endef
	.set	__ZSt12__get_helperILj0ERKiIEERT0_RSt11_Tuple_implIXT_EIS2_DpT1_EE,__ZSt12__get_helperILj0ERKiJEERT0_RSt11_Tuple_implIXT_EJS2_DpT1_EE
	.section	.text$_ZSt3getILj0EJRKiEERNSt13tuple_elementIXT_ESt5tupleIJDpT0_EEE4typeERS6_,"x"
	.linkonce discard
	.globl	__ZSt3getILj0EJRKiEERNSt13tuple_elementIXT_ESt5tupleIJDpT0_EEE4typeERS6_
	.def	__ZSt3getILj0EJRKiEERNSt13tuple_elementIXT_ESt5tupleIJDpT0_EEE4typeERS6_;	.scl	2;	.type	32;	.endef
__ZSt3getILj0EJRKiEERNSt13tuple_elementIXT_ESt5tupleIJDpT0_EEE4typeERS6_:
	pushl	%ebp
	movl	%esp, %ebp
	subl	$4, %esp
	movl	8(%ebp), %eax
	movl	%eax, (%esp)
	call	__ZSt12__get_helperILj0ERKiJEERT0_RSt11_Tuple_implIXT_EJS2_DpT1_EE
	leave
	ret
	.weak	__ZSt3getILj0EIRKiEERNSt13tuple_elementIXT_ESt5tupleIIDpT0_EEE4typeERS6_
	.def	__ZSt3getILj0EIRKiEERNSt13tuple_elementIXT_ESt5tupleIIDpT0_EEE4typeERS6_;	.scl	2;	.type	32;	.endef
	.set	__ZSt3getILj0EIRKiEERNSt13tuple_elementIXT_ESt5tupleIIDpT0_EEE4typeERS6_,__ZSt3getILj0EJRKiEERNSt13tuple_elementIXT_ESt5tupleIJDpT0_EEE4typeERS6_
	.section	.text$_ZNSt4pairIiiEC1Ev,"x"
	.linkonce discard
	.align 2
	.globl	__ZNSt4pairIiiEC1Ev
	.def	__ZNSt4pairIiiEC1Ev;	.scl	2;	.type	32;	.endef
__ZNSt4pairIiiEC1Ev:
	pushl	%ebp
	movl	%esp, %ebp
	subl	$4, %esp
	movl	%ecx, -4(%ebp)
	movl	-4(%ebp), %eax
	movl	$0, (%eax)
	movl	-4(%ebp), %eax
	movl	$0, 4(%eax)
	nop
	leave
	ret
	.section	.text$_ZNSt4pairIKiS_IiiEEC1IJRS0_EJLj0EEJEJEEERSt5tupleIJDpT_EERS5_IJDpT1_EESt12_Index_tupleIJXspT0_EEESE_IJXspT2_EEE,"x"
	.linkonce discard
	.align 2
	.globl	__ZNSt4pairIKiS_IiiEEC1IJRS0_EJLj0EEJEJEEERSt5tupleIJDpT_EERS5_IJDpT1_EESt12_Index_tupleIJXspT0_EEESE_IJXspT2_EEE
	.def	__ZNSt4pairIKiS_IiiEEC1IJRS0_EJLj0EEJEJEEERSt5tupleIJDpT_EERS5_IJDpT1_EESt12_Index_tupleIJXspT0_EEESE_IJXspT2_EEE;	.scl	2;	.type	32;	.endef
__ZNSt4pairIKiS_IiiEEC1IJRS0_EJLj0EEJEJEEERSt5tupleIJDpT_EERS5_IJDpT1_EESt12_Index_tupleIJXspT0_EEESE_IJXspT2_EEE:
	pushl	%ebp
	movl	%esp, %ebp
	subl	$8, %esp
	movl	%ecx, -4(%ebp)
	movl	8(%ebp), %eax
	movl	%eax, (%esp)
	call	__ZSt3getILj0EJRKiEERNSt13tuple_elementIXT_ESt5tupleIJDpT0_EEE4typeERS6_
	movl	%eax, (%esp)
	call	__ZSt7forwardIRKiEOT_RNSt16remove_referenceIS2_E4typeE
	movl	(%eax), %edx
	movl	-4(%ebp), %eax
	movl	%edx, (%eax)
	movl	-4(%ebp), %eax
	addl	$4, %eax
	movl	%eax, %ecx
	call	__ZNSt4pairIiiEC1Ev
	nop
	leave
	ret	$16
	.weak	__ZNSt4pairIKiS_IiiEEC1IIRS0_EILj0EEIEIEEERSt5tupleIIDpT_EERS5_IIDpT1_EESt12_Index_tupleIIXspT0_EEESE_IIXspT2_EEE
	.def	__ZNSt4pairIKiS_IiiEEC1IIRS0_EILj0EEIEIEEERSt5tupleIIDpT_EERS5_IIDpT1_EESt12_Index_tupleIIXspT0_EEESE_IIXspT2_EEE;	.scl	2;	.type	32;	.endef
	.set	__ZNSt4pairIKiS_IiiEEC1IIRS0_EILj0EEIEIEEERSt5tupleIIDpT_EERS5_IIDpT1_EESt12_Index_tupleIIXspT0_EEESE_IIXspT2_EEE,__ZNSt4pairIKiS_IiiEEC1IJRS0_EJLj0EEJEJEEERSt5tupleIJDpT_EERS5_IJDpT1_EESt12_Index_tupleIJXspT0_EEESE_IJXspT2_EEE
	.section	.text$_ZNSt16allocator_traitsISaIPNSt8__detail15_Hash_node_baseEEE8allocateERS3_j,"x"
	.linkonce discard
	.globl	__ZNSt16allocator_traitsISaIPNSt8__detail15_Hash_node_baseEEE8allocateERS3_j
	.def	__ZNSt16allocator_traitsISaIPNSt8__detail15_Hash_node_baseEEE8allocateERS3_j;	.scl	2;	.type	32;	.endef
__ZNSt16allocator_traitsISaIPNSt8__detail15_Hash_node_baseEEE8allocateERS3_j:
	pushl	%ebp
	movl	%esp, %ebp
	subl	$24, %esp
	movl	$0, 4(%esp)
	movl	12(%ebp), %eax
	movl	%eax, (%esp)
	movl	8(%ebp), %ecx
	call	__ZN9__gnu_cxx13new_allocatorIPNSt8__detail15_Hash_node_baseEE8allocateEjPKv
	subl	$8, %esp
	leave
	ret
	.section	.text$_ZNK9__gnu_cxx16__aligned_bufferISt4pairIKiS1_IiiEEE6_M_ptrEv,"x"
	.linkonce discard
	.align 2
	.globl	__ZNK9__gnu_cxx16__aligned_bufferISt4pairIKiS1_IiiEEE6_M_ptrEv
	.def	__ZNK9__gnu_cxx16__aligned_bufferISt4pairIKiS1_IiiEEE6_M_ptrEv;	.scl	2;	.type	32;	.endef
__ZNK9__gnu_cxx16__aligned_bufferISt4pairIKiS1_IiiEEE6_M_ptrEv:
	pushl	%ebp
	movl	%esp, %ebp
	subl	$24, %esp
	movl	%ecx, -12(%ebp)
	movl	-12(%ebp), %eax
	movl	%eax, %ecx
	call	__ZNK9__gnu_cxx16__aligned_bufferISt4pairIKiS1_IiiEEE7_M_addrEv
	leave
	ret
	.section	.text$_ZN9__gnu_cxx13new_allocatorIPNSt8__detail15_Hash_node_baseEE8allocateEjPKv,"x"
	.linkonce discard
	.align 2
	.globl	__ZN9__gnu_cxx13new_allocatorIPNSt8__detail15_Hash_node_baseEE8allocateEjPKv
	.def	__ZN9__gnu_cxx13new_allocatorIPNSt8__detail15_Hash_node_baseEE8allocateEjPKv;	.scl	2;	.type	32;	.endef
__ZN9__gnu_cxx13new_allocatorIPNSt8__detail15_Hash_node_baseEE8allocateEjPKv:
	pushl	%ebp
	movl	%esp, %ebp
	subl	$40, %esp
	movl	%ecx, -12(%ebp)
	movl	-12(%ebp), %eax
	movl	%eax, %ecx
	call	__ZNK9__gnu_cxx13new_allocatorIPNSt8__detail15_Hash_node_baseEE8max_sizeEv
	cmpl	8(%ebp), %eax
	setb	%al
	testb	%al, %al
	je	L494
	call	__ZSt17__throw_bad_allocv
L494:
	movl	8(%ebp), %eax
	sall	$2, %eax
	movl	%eax, (%esp)
	call	__Znwj
	leave
	ret	$8
	.section	.text$_ZNK9__gnu_cxx16__aligned_bufferISt4pairIKiS1_IiiEEE7_M_addrEv,"x"
	.linkonce discard
	.align 2
	.globl	__ZNK9__gnu_cxx16__aligned_bufferISt4pairIKiS1_IiiEEE7_M_addrEv
	.def	__ZNK9__gnu_cxx16__aligned_bufferISt4pairIKiS1_IiiEEE7_M_addrEv;	.scl	2;	.type	32;	.endef
__ZNK9__gnu_cxx16__aligned_bufferISt4pairIKiS1_IiiEEE7_M_addrEv:
	pushl	%ebp
	movl	%esp, %ebp
	subl	$4, %esp
	movl	%ecx, -4(%ebp)
	movl	-4(%ebp), %eax
	leave
	ret
	.section	.text$_ZNK9__gnu_cxx13new_allocatorIPNSt8__detail15_Hash_node_baseEE8max_sizeEv,"x"
	.linkonce discard
	.align 2
	.globl	__ZNK9__gnu_cxx13new_allocatorIPNSt8__detail15_Hash_node_baseEE8max_sizeEv
	.def	__ZNK9__gnu_cxx13new_allocatorIPNSt8__detail15_Hash_node_baseEE8max_sizeEv;	.scl	2;	.type	32;	.endef
__ZNK9__gnu_cxx13new_allocatorIPNSt8__detail15_Hash_node_baseEE8max_sizeEv:
	pushl	%ebp
	movl	%esp, %ebp
	subl	$4, %esp
	movl	%ecx, -4(%ebp)
	movl	$1073741823, %eax
	leave
	ret
	.text
	.def	___tcf_0;	.scl	3;	.type	32;	.endef
___tcf_0:
	pushl	%ebp
	movl	%esp, %ebp
	subl	$8, %esp
	movl	$__ZStL8__ioinit, %ecx
	call	__ZNSt8ios_base4InitD1Ev
	leave
	ret
	.def	__Z41__static_initialization_and_destruction_0ii;	.scl	3;	.type	32;	.endef
__Z41__static_initialization_and_destruction_0ii:
	pushl	%ebp
	movl	%esp, %ebp
	subl	$24, %esp
	cmpl	$1, 8(%ebp)
	jne	L503
	cmpl	$65535, 12(%ebp)
	jne	L503
	movl	$__ZStL8__ioinit, %ecx
	call	__ZNSt8ios_base4InitC1Ev
	movl	$___tcf_0, (%esp)
	call	_atexit
L503:
	nop
	leave
	ret
	.def	__GLOBAL__sub_I_main;	.scl	3;	.type	32;	.endef
__GLOBAL__sub_I_main:
	pushl	%ebp
	movl	%esp, %ebp
	subl	$24, %esp
	movl	$65535, 4(%esp)
	movl	$1, (%esp)
	call	__Z41__static_initialization_and_destruction_0ii
	leave
	ret
	.section	.ctors,"w"
	.align 4
	.long	__GLOBAL__sub_I_main
	.ident	"GCC: (tdm-1) 5.1.0"
	.def	_vsnprintf;	.scl	2;	.type	32;	.endef
	.def	__ZNSaIcEC1Ev;	.scl	2;	.type	32;	.endef
	.def	__ZNSt7__cxx1112basic_stringIcSt11char_traitsIcESaIcEEC1EPKcRKS3_;	.scl	2;	.type	32;	.endef
	.def	__ZNSaIcED1Ev;	.scl	2;	.type	32;	.endef
	.def	__ZNSt7__cxx1112basic_stringIcSt11char_traitsIcESaIcEEpLERKS4_;	.scl	2;	.type	32;	.endef
	.def	__ZNSt7__cxx1112basic_stringIcSt11char_traitsIcESaIcEED1Ev;	.scl	2;	.type	32;	.endef
	.def	__ZNSt7__cxx1112basic_stringIcSt11char_traitsIcESaIcEE3endEv;	.scl	2;	.type	32;	.endef
	.def	__ZNSt7__cxx1112basic_stringIcSt11char_traitsIcESaIcEE5beginEv;	.scl	2;	.type	32;	.endef
	.def	__Unwind_SjLj_Resume;	.scl	2;	.type	32;	.endef
	.def	__ZNSt8ios_base15sync_with_stdioEb;	.scl	2;	.type	32;	.endef
	.def	__ZNSt9basic_iosIcSt11char_traitsIcEE3tieEPSo;	.scl	2;	.type	32;	.endef
	.def	__ZNSirsERi;	.scl	2;	.type	32;	.endef
	.def	__ZNKSt7__cxx1112basic_stringIcSt11char_traitsIcESaIcEE6lengthEv;	.scl	2;	.type	32;	.endef
	.def	__ZStlsIcSt11char_traitsIcESaIcEERSt13basic_ostreamIT_T0_ES7_RKNSt7__cxx1112basic_stringIS4_S5_T1_EE;	.scl	2;	.type	32;	.endef
	.def	__ZStlsISt11char_traitsIcEERSt13basic_ostreamIcT_ES5_PKc;	.scl	2;	.type	32;	.endef
	.def	__ZNSt7__cxx1112basic_stringIcSt11char_traitsIcESaIcEE6insertEN9__gnu_cxx17__normal_iteratorIPKcS4_EEjc;	.scl	2;	.type	32;	.endef
	.def	__ZSt4endlIcSt11char_traitsIcEERSt13basic_ostreamIT_T0_ES6_;	.scl	2;	.type	32;	.endef
	.def	__ZNSolsEPFRSoS_E;	.scl	2;	.type	32;	.endef
	.def	__ZNSolsEi;	.scl	2;	.type	32;	.endef
	.def	__ZNSaIcED2Ev;	.scl	2;	.type	32;	.endef
	.def	__ZNSt7__cxx1112basic_stringIcSt11char_traitsIcESaIcEE13_M_local_dataEv;	.scl	2;	.type	32;	.endef
	.def	__ZNSt7__cxx1112basic_stringIcSt11char_traitsIcESaIcEE12_Alloc_hiderC1EPcRKS3_;	.scl	2;	.type	32;	.endef
	.def	_memset;	.scl	2;	.type	32;	.endef
	.def	___cxa_begin_catch;	.scl	2;	.type	32;	.endef
	.def	___cxa_rethrow;	.scl	2;	.type	32;	.endef
	.def	___cxa_end_catch;	.scl	2;	.type	32;	.endef
	.def	__ZNKSt8__detail20_Prime_rehash_policy14_M_need_rehashEjjj;	.scl	2;	.type	32;	.endef
	.def	__ZSt19__throw_logic_errorPKc;	.scl	2;	.type	32;	.endef
	.def	__ZNSt7__cxx1112basic_stringIcSt11char_traitsIcESaIcEE9_M_createERjj;	.scl	2;	.type	32;	.endef
	.def	__ZNSt7__cxx1112basic_stringIcSt11char_traitsIcESaIcEE7_M_dataEPc;	.scl	2;	.type	32;	.endef
	.def	__ZNSt7__cxx1112basic_stringIcSt11char_traitsIcESaIcEE11_M_capacityEj;	.scl	2;	.type	32;	.endef
	.def	__ZNKSt7__cxx1112basic_stringIcSt11char_traitsIcESaIcEE7_M_dataEv;	.scl	2;	.type	32;	.endef
	.def	__ZNSt7__cxx1112basic_stringIcSt11char_traitsIcESaIcEE13_S_copy_charsEPcS5_S5_;	.scl	2;	.type	32;	.endef
	.def	__ZNSt7__cxx1112basic_stringIcSt11char_traitsIcESaIcEE13_M_set_lengthEj;	.scl	2;	.type	32;	.endef
	.def	__ZNSt7__cxx1112basic_stringIcSt11char_traitsIcESaIcEE10_M_disposeEv;	.scl	2;	.type	32;	.endef
	.def	__ZdlPv;	.scl	2;	.type	32;	.endef
	.def	__ZSt17__throw_bad_allocv;	.scl	2;	.type	32;	.endef
	.def	__Znwj;	.scl	2;	.type	32;	.endef
	.def	__ZNSt8ios_base4InitD1Ev;	.scl	2;	.type	32;	.endef
	.def	__ZNSt8ios_base4InitC1Ev;	.scl	2;	.type	32;	.endef
	.def	_atexit;	.scl	2;	.type	32;	.endef
